     1                                  ; ============================================================================
     2                                  ; PalSwapT.ASM - CGA Palette Override TSR with Live Hotkeys
     3                                  ; Written for NASM - 8086 compatible (runs on any DOS PC)
     4                                  ; By Retro Erik - 2026 using VS Code with GitHub Copilot
     5                                  ; Version 3.0 - TSR with ScrollLock hotkeys
     6                                  ; ============================================================================
     7                                  ;
     8                                  ; Combines the full palette engine of PalSwap.asm with a TSR that hooks
     9                                  ; both INT 10h (video mode change) and INT 09h (keyboard) so you can:
    10                                  ;   - Survive CGA mode resets (palette re-applied after every mode 4/5 set)
    11                                  ;   - Switch presets LIVE while a game is running (ScrollLock + 1..5)
    12                                  ;   - Adjust brightness, saturation, pop on the fly (ScrollLock + arrows/P/R)
    13                                  ;
    14                                  ; HOTKEY SYSTEM:
    15                                  ;   Turn ScrollLock ON to activate palette edit mode (LED = indicator).
    16                                  ;   While ScrollLock is ON:
    17                                  ;     1..5         Load preset 1-5 (Arcade, Sierra, C64, Red/Green, Red/Blue)
    18                                  ;     P            Toggle Pop (saturation + contrast boost)
    19                                  ;     R            Reset to default CGA palette
    20                                  ;     Up / Down    Brighten / Dim (+/-8 per step, max 3 steps)
    21                                  ;     Left / Right Less vivid / More vivid (saturation, max 3 steps)
    22                                  ;   Turn ScrollLock OFF to return to normal — all keys pass through.
    23                                  ;   (ScrollLock is never used by CGA-era games, so zero interference.)
    24                                  ;
    25                                  ; HOW IT WORKS:
    26                                  ;   1. You run PalSwapT [/1..5 | file.txt | /c:... | /b:...] before the game.
    27                                  ;   2. PalSwapT loads the palette, hooks INT 09h + INT 10h, stays resident.
    28                                  ;   3. When the game calls INT 10h AH=00h AL=04h/05h (set CGA mode 4/5):
    29                                  ;        a. The original INT 10h handler runs first (sets the hardware mode).
    30                                  ;        b. Our hook immediately re-programs the VGA DAC or EGA ATC.
    31                                  ;   4. While running, press ScrollLock then 1-5/P/R/arrows to adjust live.
    32                                  ;   5. Run "PalSwapT /U" to uninstall.
    33                                  ;
    34                                  ; VGA path:
    35                                  ;   Table-driven DAC write using color_to_dac[] for conflict-free routing.
    36                                  ;   ATC[0-3] = 0, 1, 8, 9  — avoids DAC entry conflicts between CGA palette
    37                                  ;   variants.  Also calls INT 10h AX=1201h BL=31h to disable BIOS palette
    38                                  ;   reload.  Belt-and-suspenders: disable flag + hook re-apply.
    39                                  ;
    40                                  ; EGA path:
    41                                  ;   Converts RGB to nearest EGA 6-bit values. Builds 16-entry atc_shadow[]
    42                                  ;   covering all CGA palette routing variants.  Re-applied via ATC ports.
    43                                  ;
    44                                  ; CGA mode 4 pixel -> DAC entry mapping (all 16 entries programmed):
    45                                  ;   DAC 0  = color 0 (background)
    46                                  ;   DAC 1  = color 1 (our ATC)     DAC 8  = color 2 (our ATC)
    47                                  ;   DAC 2  = color 1 (pal0 low)    DAC 9  = color 3 (our ATC)
    48                                  ;   DAC 3  = color 1 (pal1 low)    DAC 10 = color 1 (pal0 high)
    49                                  ;   DAC 4  = color 2 (pal0 low)    DAC 11 = color 1 (pal1 high)
    50                                  ;   DAC 5  = color 2 (pal1 low)    DAC 12 = color 2 (pal0 high)
    51                                  ;   DAC 6  = color 3 (pal0 low)    DAC 13 = color 2 (pal1 high)
    52                                  ;   DAC 7  = color 3 (pal1 low)    DAC 14 = color 3 (pal0 high)
    53                                  ;                                   DAC 15 = color 3 (pal1 high)
    54                                  ;
    55                                  ; IMPORTANT - far-pointer layout in resident data:
    56                                  ;   orig_int10_ofs MUST come before orig_int10_seg in memory because
    57                                  ;   "jmp/call far [mem]" reads offset then segment.
    58                                  ;   Same for orig_int09_ofs / orig_int09_seg.
    59                                  ;
    60                                  ; TSR SIZE:
    61                                  ;   Computed at runtime as  (offset_of_tsr_end + 15) / 16  paragraphs.
    62                                  ;   ORG 0x100 means label offsets already include the 256-byte PSP.
    63                                  ;
    64                                  ; Usage: PalSwapT [file.txt] [/1..5] [/c:c1,c2,c3] [/b:color]
    65                                  ;                 [/P] [/V:+|-] [/D:+|-] [/R] [/U] [/?]
    66                                  ;
    67                                  ; ============================================================================
    68                                  
    69                                  [BITS 16]
    70                                  [ORG 0x100]
    71                                  CPU 8086
    72                                  
    73                                  ; ============================================================================
    74                                  ; Constants
    75                                  ; ============================================================================
    76                                  VGA_DAC_WRITE_IDX   equ 0x3C8
    77                                  VGA_DAC_DATA        equ 0x3C9
    78                                  ATC_ADDR_DATA       equ 0x3C0
    79                                  INPUT_STATUS_1      equ 0x3DA
    80                                  
    81                                  CONFIG_SIZE         equ 12          ; 4 colors × 3 bytes
    82                                  PALETTE_ENTRIES     equ 4
    83                                  TEXT_BUF_SIZE       equ 512
    84                                  
    85                                  ; Keyboard scan codes
    86                                  SCAN_1              equ 0x02
    87                                  SCAN_5              equ 0x06
    88                                  SCAN_P              equ 0x19
    89                                  SCAN_R              equ 0x13
    90                                  SCAN_UP             equ 0x48
    91                                  SCAN_DOWN           equ 0x50
    92                                  SCAN_LEFT           equ 0x4B
    93                                  SCAN_RIGHT          equ 0x4D
    94                                  
    95                                  ; BIOS keyboard flag bits at 0040:0017h
    96                                  SCROLLLOCK_BIT      equ 0x10        ; bit 4 = ScrollLock active
    97                                  
    98                                  ; Adjustment limits
    99                                  MAX_BRIGHT_LEVEL    equ 3
   100                                  MAX_VIVID_LEVEL     equ 3
   101                                  
   102                                  ; ============================================================================
   103                                  ; Jump over resident section to installer
   104                                  ; ============================================================================
   105 00000000 E90705                  jmp main
   106                                  
   107                                  ; ============================================================================
   108                                  ; =====================  RESIDENT SECTION  ===================================
   109                                  ; ============================================================================
   110                                  ; Everything from here to tsr_end stays in memory after going TSR.
   111                                  ; ============================================================================
   112                                  
   113                                  ; --- TSR Signature (7 bytes) - used for detection/uninstall ---
   114 00000003 50616C53776170          tsr_sig:            db 'PalSwap'
   115                                  
   116                                  ; --- Original interrupt vectors (far pointers: offset THEN segment) ---
   117 0000000A 0000                    orig_int10_ofs:     dw 0
   118 0000000C 0000                    orig_int10_seg:     dw 0
   119 0000000E 0000                    orig_int09_ofs:     dw 0
   120 00000010 0000                    orig_int09_seg:     dw 0
   121                                  
   122                                  ; --- Video adapter type: 0=none, 1=EGA, 2=VGA ---
   123 00000012 00                      video_type:         db 0
   124                                  
   125                                  ; --- Adjustment state ---
   126 00000013 00                      adj_brightness:     db 0            ; signed: -3..+3 (each step = ±8)
   127 00000014 00                      adj_vivid:          db 0            ; signed: -3..+3
   128 00000015 00                      adj_pop:            db 0            ; 0=off, 1=on (toggle)
   129                                  
   130                                  ; --- Base palette: the original colors loaded from preset/file/cmdline.
   131                                  ;     Never modified by hotkeys. Adjustments are applied on top of this. ---
   132                                  base_palette:
   133 00000016 000000                      db 0,  0,  0               ; color 0: Black
   134 00000019 002A3F                      db 0, 42, 63               ; color 1: Cyan
   135 0000001C 2A002A                      db 42,  0, 42              ; color 2: Magenta
   136 0000001F 3F3F3F                      db 63, 63, 63              ; color 3: White
   137                                  
   138                                  ; --- Active palette: recomputed from base + adjustments, written to HW ---
   139                                  palette_rgb:
   140 00000022 000000                      db 0,  0,  0
   141 00000025 002A3F                      db 0, 42, 63
   142 00000028 2A002A                      db 42,  0, 42
   143 0000002B 3F3F3F                      db 63, 63, 63
   144                                  
   145                                  ; --- EGA ATC shadow table (16 bytes, rebuilt on every adjustment) ---
   146 0000002E 00<rep 10h>             atc_shadow:         times 16 db 0
   147                                  
   148                                  ; --- Resident lookup tables ---
   149                                  
   150                                  ; Maps DAC entry 0-15 to user color index 0-3 (conflict-free routing)
   151                                  color_to_dac:
   152 0000003E 000101010202030302-         db 0, 1, 1, 1, 2, 2, 3, 3, 2, 3, 1, 1, 2, 2, 3, 3
   152 00000047 03010102020303     
   153                                  
   154                                  ; ATC[0-3] = 0,1,8,9 (conflict-free), ATC[4-15] = standard text values
   155                                  vga_atc_init:
   156 0000004E 000108090405140738-         db 0, 1, 8, 9, 4, 5, 0x14, 7, 0x38, 0x39, 0x3A, 0x3B, 0x3C, 0x3D, 0x3E, 0x3F
   156 00000057 393A3B3C3D3E3F     
   157                                  
   158                                  ; Default EGA ATC register values for the 16 CGA colors
   159                                  cga_ega_default:
   160 0000005E 0001020304051407            db 0x00, 0x01, 0x02, 0x03, 0x04, 0x05, 0x14, 0x07
   161 00000066 38393A3B3C3D3E3F            db 0x38, 0x39, 0x3A, 0x3B, 0x3C, 0x3D, 0x3E, 0x3F
   162                                  
   163                                  ; 5 preset palettes + fallback (resident for hotkey switching)
   164                                  res_preset_fallback:
   165 0000006E 000000002A3F2A002A-         db 0,  0,  0,    0, 42, 63,   42,  0, 42,   63, 63, 63
   165 00000077 3F3F3F             
   166                                  res_preset_1:                       ; Arcade Vibrant
   167 0000007A 000000091B3F3F0909-         db 0,  0,  0,    9, 27, 63,   63,  9,  9,   63, 45, 27
   167 00000083 3F2D1B             
   168                                  res_preset_2:                       ; Sierra Natural
   169 00000086 000000092424241209-         db 0,  0,  0,    9, 36, 36,   36, 18,  9,   63, 45, 36
   169 0000008F 3F2D24             
   170                                  res_preset_3:                       ; C64-inspired
   171 00000092 000000121B3F361B09-         db 0,  0,  0,   18, 27, 63,   54, 27,  9,   63, 54, 36
   171 0000009B 3F3624             
   172                                  res_preset_4:                       ; CGA Red/Green/White
   173 0000009E 0000003F0909093F09-         db 0,  0,  0,   63,  9,  9,    9, 63,  9,   63, 63, 63
   173 000000A7 3F3F3F             
   174                                  res_preset_5:                       ; CGA Red/Blue/White
   175 000000AA 0000003F000000003F-         db 0,  0,  0,   63,  0,  0,    0,  0, 63,   63, 63, 63
   175 000000B3 3F3F3F             
   176                                  
   177                                  ; DAC table workspace for VGA (16 entries × 3 bytes = 48 bytes)
   178 000000B6 00<rep 30h>             dac_table:          times 48 db 0
   179                                  
   180                                  ; EGA temporary workspace (4 bytes)
   181 000000E6 00<rep 4h>              ega_tmp:            times 4 db 0
   182                                  
   183                                  ; ============================================================================
   184                                  ; INT 10h HOOK — Re-apply palette after CGA mode 4/5 set
   185                                  ; ============================================================================
   186                                  tsr_int10:
   187 000000EA 80FC00                      cmp ah, 0x00
   188 000000ED 7508                        jne .chain
   189 000000EF 3C04                        cmp al, 0x04
   190 000000F1 7409                        je .cga_mode
   191 000000F3 3C05                        cmp al, 0x05
   192 000000F5 7405                        je .cga_mode
   193                                  
   194                                  .chain:
   195 000000F7 2EFF2E[0A00]                jmp far [cs:orig_int10_ofs]
   196                                  
   197                                  .cga_mode:
   198                                      ; Let the original handler set the mode first
   199 000000FC 9C                          pushf
   200 000000FD 2EFF1E[0A00]                call far [cs:orig_int10_ofs]
   201                                      ; Now re-apply our palette
   202 00000102 2E803E[1200]02              cmp byte [cs:video_type], 2
   203 00000108 7409                        je .do_vga
   204 0000010A 2E803E[1200]01              cmp byte [cs:video_type], 1
   205 00000110 7405                        je .do_ega
   206 00000112 CF                          iret
   207                                  .do_vga:
   208 00000113 E8CD01                      call apply_palette_vga
   209 00000116 CF                          iret
   210                                  .do_ega:
   211 00000117 E84102                      call apply_palette_ega
   212 0000011A CF                          iret
   213                                  
   214                                  ; ============================================================================
   215                                  ; INT 09h HOOK — ScrollLock-gated hotkeys for live palette adjustment
   216                                  ; ============================================================================
   217                                  tsr_int09:
   218 0000011B 50                          push ax
   219 0000011C 1E                          push ds
   220                                  
   221                                      ; Read scan code from keyboard controller
   222 0000011D E460                        in al, 0x60
   223                                  
   224                                      ; If this IS the ScrollLock key itself, let the BIOS handle it
   225                                      ; (so the LED toggles normally) — don't intercept
   226 0000011F 3C46                        cmp al, 0x46               ; ScrollLock make code
   227 00000121 7503E9B500                  je .chain_kb
   228                                  
   229                                      ; Check if it's a key release (bit 7 set) — ignore releases
   230 00000126 A880                        test al, 0x80
   231 00000128 7403E9AE00                  jnz .chain_kb
   232                                  
   233                                      ; Check ScrollLock state in BIOS keyboard flags
   234 0000012D B84000                      mov ax, 0x0040
   235 00000130 8ED8                        mov ds, ax
   236 00000132 F606170010                  test byte [0x0017], SCROLLLOCK_BIT
   237 00000137 7503E99F00                  jz .chain_kb               ; ScrollLock off → pass through
   238                                  
   239                                      ; ScrollLock is ON — check for our hotkeys
   240 0000013C 88C4                        mov ah, al                 ; save scan code in AH
   241                                  
   242                                      ; Preset keys 1-5
   243 0000013E 80FC02                      cmp ah, SCAN_1
   244 00000141 720D                        jb .check_special
   245 00000143 80FC06                      cmp ah, SCAN_5
   246 00000146 7708                        ja .check_special
   247                                      ; AH = 02h..06h → preset 1..5
   248 00000148 80EC02                      sub ah, SCAN_1             ; AH = 0..4 = preset index
   249 0000014B E89400                      call hotkey_load_preset
   250 0000014E EB7A                        jmp .swallow
   251                                  
   252                                  .check_special:
   253 00000150 80FC19                      cmp ah, SCAN_P
   254 00000153 741B                        je .do_pop
   255 00000155 80FC13                      cmp ah, SCAN_R
   256 00000158 7421                        je .do_reset
   257 0000015A 80FC48                      cmp ah, SCAN_UP
   258 0000015D 7423                        je .do_bright_up
   259 0000015F 80FC50                      cmp ah, SCAN_DOWN
   260 00000162 7430                        je .do_bright_dn
   261 00000164 80FC4D                      cmp ah, SCAN_RIGHT
   262 00000167 743D                        je .do_vivid_up
   263 00000169 80FC4B                      cmp ah, SCAN_LEFT
   264 0000016C 744A                        je .do_vivid_dn
   265 0000016E EB6B                        jmp .chain_kb              ; not our key → pass through
   266                                  
   267                                  .do_pop:
   268 00000170 2E8036[1500]01              xor byte [cs:adj_pop], 1  ; toggle 0↔1
   269 00000176 E8DB00                      call recompute_and_apply
   270 00000179 EB4F                        jmp .swallow
   271                                  
   272                                  .do_reset:
   273                                      ; Load fallback palette, reset all adjustments
   274 0000017B B400                        mov ah, 0                  ; preset index for fallback = special
   275 0000017D E8A100                      call hotkey_load_fallback
   276 00000180 EB48                        jmp .swallow
   277                                  
   278                                  .do_bright_up:
   279 00000182 2E803E[1300]03              cmp byte [cs:adj_brightness], MAX_BRIGHT_LEVEL
   280 00000188 7D40                        jge .swallow               ; already at max
   281 0000018A 2EFE06[1300]                inc byte [cs:adj_brightness]
   282 0000018F E8C200                      call recompute_and_apply
   283 00000192 EB36                        jmp .swallow
   284                                  
   285                                  .do_bright_dn:
   286 00000194 2E803E[1300]FD              cmp byte [cs:adj_brightness], -MAX_BRIGHT_LEVEL
   287 0000019A 7E2E                        jle .swallow               ; already at min
   288 0000019C 2EFE0E[1300]                dec byte [cs:adj_brightness]
   289 000001A1 E8B000                      call recompute_and_apply
   290 000001A4 EB24                        jmp .swallow
   291                                  
   292                                  .do_vivid_up:
   293 000001A6 2E803E[1400]03              cmp byte [cs:adj_vivid], MAX_VIVID_LEVEL
   294 000001AC 7D1C                        jge .swallow
   295 000001AE 2EFE06[1400]                inc byte [cs:adj_vivid]
   296 000001B3 E89E00                      call recompute_and_apply
   297 000001B6 EB12                        jmp .swallow
   298                                  
   299                                  .do_vivid_dn:
   300 000001B8 2E803E[1400]FD              cmp byte [cs:adj_vivid], -MAX_VIVID_LEVEL
   301 000001BE 7E0A                        jle .swallow
   302 000001C0 2EFE0E[1400]                dec byte [cs:adj_vivid]
   303 000001C5 E88C00                      call recompute_and_apply
   304 000001C8 EB00                        jmp .swallow
   305                                  
   306                                  .swallow:
   307                                      ; Acknowledge keystroke: toggle port 61h bit 7 + send EOI to PIC
   308 000001CA E461                        in al, 0x61
   309 000001CC 0C80                        or al, 0x80
   310 000001CE E661                        out 0x61, al
   311 000001D0 247F                        and al, 0x7F
   312 000001D2 E661                        out 0x61, al
   313 000001D4 B020                        mov al, 0x20
   314 000001D6 E620                        out 0x20, al
   315 000001D8 1F                          pop ds
   316 000001D9 58                          pop ax
   317 000001DA CF                          iret
   318                                  
   319                                  .chain_kb:
   320 000001DB 1F                          pop ds
   321 000001DC 58                          pop ax
   322 000001DD 2EFF2E[0E00]                jmp far [cs:orig_int09_ofs]
   323                                  
   324                                  ; ============================================================================
   325                                  ; hotkey_load_preset — Load preset by index (AH = 0..4)
   326                                  ; Resets adjustments and recomputes.
   327                                  ; ============================================================================
   328                                  hotkey_load_preset:
   329 000001E2 50                          push ax
   330 000001E3 51                          push cx
   331 000001E4 56                          push si
   332 000001E5 57                          push di
   333 000001E6 06                          push es
   334                                  
   335 000001E7 0E                          push cs
   336 000001E8 07                          pop es
   337                                  
   338                                      ; Calculate source: res_preset_1 + AH * 12
   339 000001E9 88E0                        mov al, ah
   340 000001EB 30E4                        xor ah, ah
   341 000001ED B10C                        mov cl, 12
   342 000001EF F6E1                        mul cl                     ; AX = preset_index * 12
   343 000001F1 BE[7A00]                    mov si, res_preset_1
   344 000001F4 01C6                        add si, ax
   345                                  
   346                                      ; Copy 12 bytes to base_palette
   347 000001F6 BF[1600]                    mov di, base_palette
   348 000001F9 B90C00                      mov cx, 12
   349                                  .copy:
   350 000001FC 2E8A04                      mov al, [cs:si]
   351 000001FF 2E8805                      mov [cs:di], al
   352 00000202 46                          inc si
   353 00000203 47                          inc di
   354 00000204 E2F6                        loop .copy
   355                                  
   356                                      ; Reset adjustments
   357 00000206 2EC606[1300]00              mov byte [cs:adj_brightness], 0
   358 0000020C 2EC606[1400]00              mov byte [cs:adj_vivid], 0
   359 00000212 2EC606[1500]00              mov byte [cs:adj_pop], 0
   360                                  
   361 00000218 07                          pop es
   362 00000219 5F                          pop di
   363 0000021A 5E                          pop si
   364 0000021B 59                          pop cx
   365 0000021C 58                          pop ax
   366 0000021D E83400                      call recompute_and_apply
   367 00000220 C3                          ret
   368                                  
   369                                  ; ============================================================================
   370                                  ; hotkey_load_fallback — Reset to default CGA palette
   371                                  ; ============================================================================
   372                                  hotkey_load_fallback:
   373 00000221 51                          push cx
   374 00000222 56                          push si
   375 00000223 57                          push di
   376 00000224 06                          push es
   377                                  
   378 00000225 0E                          push cs
   379 00000226 07                          pop es
   380                                  
   381 00000227 BE[6E00]                    mov si, res_preset_fallback
   382 0000022A BF[1600]                    mov di, base_palette
   383 0000022D B90C00                      mov cx, 12
   384                                  .copy:
   385 00000230 2E8A04                      mov al, [cs:si]
   386 00000233 2E8805                      mov [cs:di], al
   387 00000236 46                          inc si
   388 00000237 47                          inc di
   389 00000238 E2F6                        loop .copy
   390                                  
   391 0000023A 2EC606[1300]00              mov byte [cs:adj_brightness], 0
   392 00000240 2EC606[1400]00              mov byte [cs:adj_vivid], 0
   393 00000246 2EC606[1500]00              mov byte [cs:adj_pop], 0
   394                                  
   395 0000024C 07                          pop es
   396 0000024D 5F                          pop di
   397 0000024E 5E                          pop si
   398 0000024F 59                          pop cx
   399 00000250 E80100                      call recompute_and_apply
   400 00000253 C3                          ret
   401                                  
   402                                  ; ============================================================================
   403                                  ; recompute_and_apply — Rebuild palette_rgb from base + adjustments, then
   404                                  ;                       write to hardware (VGA DAC or EGA ATC).
   405                                  ;
   406                                  ; Pipeline:  base → copy to palette_rgb
   407                                  ;            → apply vivid (N times boost or mute)
   408                                  ;            → if pop: saturation_boost + contrast_boost
   409                                  ;            → apply brightness (adj × 8, clamped)
   410                                  ;            → rebuild EGA atc_shadow if needed
   411                                  ;            → write to hardware
   412                                  ; ============================================================================
   413                                  recompute_and_apply:
   414 00000254 50                          push ax
   415 00000255 53                          push bx
   416 00000256 51                          push cx
   417 00000257 52                          push dx
   418 00000258 56                          push si
   419 00000259 57                          push di
   420 0000025A 06                          push es
   421                                  
   422 0000025B 0E                          push cs
   423 0000025C 07                          pop es
   424                                  
   425                                      ; Step 1: Copy base_palette → palette_rgb
   426 0000025D BE[1600]                    mov si, base_palette
   427 00000260 BF[2200]                    mov di, palette_rgb
   428 00000263 B90C00                      mov cx, 12
   429                                  .rc_copy:
   430 00000266 2E8A04                      mov al, [cs:si]
   431 00000269 2E8805                      mov [cs:di], al
   432 0000026C 46                          inc si
   433 0000026D 47                          inc di
   434 0000026E E2F6                        loop .rc_copy
   435                                  
   436                                      ; Step 2: Vivid adjustment (-3..+3 steps of saturation boost/mute)
   437 00000270 2EA0[1400]                  mov al, [cs:adj_vivid]
   438 00000274 84C0                        test al, al
   439 00000276 7418                        jz .rc_pop_check
   440 00000278 780B                        js .rc_vivid_mute
   441                                      ; Positive: apply saturation boost N times
   442 0000027A 88C1                        mov cl, al
   443 0000027C 30ED                        xor ch, ch
   444                                  .rc_vivid_boost_loop:
   445 0000027E E8E701                      call res_saturation_boost
   446 00000281 E2FB                        loop .rc_vivid_boost_loop
   447 00000283 EB0B                        jmp .rc_pop_check
   448                                  .rc_vivid_mute:
   449                                      ; Negative: apply saturation mute N times
   450 00000285 F6D8                        neg al
   451 00000287 88C1                        mov cl, al
   452 00000289 30ED                        xor ch, ch
   453                                  .rc_vivid_mute_loop:
   454 0000028B E81F02                      call res_saturation_mute
   455 0000028E E2FB                        loop .rc_vivid_mute_loop
   456                                  
   457                                  .rc_pop_check:
   458                                      ; Step 3: Pop = saturation boost + contrast boost
   459 00000290 2E803E[1500]00              cmp byte [cs:adj_pop], 0
   460 00000296 7406                        je .rc_brightness
   461 00000298 E8CD01                      call res_saturation_boost
   462 0000029B E84302                      call res_contrast_boost
   463                                  
   464                                  .rc_brightness:
   465                                      ; Step 4: Brightness (-3..+3 steps, each step = ±8)
   466 0000029E 2EA0[1300]                  mov al, [cs:adj_brightness]
   467 000002A2 84C0                        test al, al
   468 000002A4 7418                        jz .rc_apply
   469 000002A6 780B                        js .rc_dim
   470                                      ; Positive: brighten
   471 000002A8 88C1                        mov cl, al
   472 000002AA 30ED                        xor ch, ch
   473                                  .rc_bright_loop:
   474 000002AC E88301                      call res_brighten
   475 000002AF E2FB                        loop .rc_bright_loop
   476 000002B1 EB0B                        jmp .rc_apply
   477                                  .rc_dim:
   478 000002B3 F6D8                        neg al
   479 000002B5 88C1                        mov cl, al
   480 000002B7 30ED                        xor ch, ch
   481                                  .rc_dim_loop:
   482 000002B9 E89201                      call res_dim
   483 000002BC E2FB                        loop .rc_dim_loop
   484                                  
   485                                  .rc_apply:
   486                                      ; Step 5: Rebuild EGA shadow if needed, then write to hardware
   487 000002BE 2E803E[1200]02              cmp byte [cs:video_type], 2
   488 000002C4 740A                        je .rc_vga
   489 000002C6 2E803E[1200]01              cmp byte [cs:video_type], 1
   490 000002CC 7407                        je .rc_ega
   491 000002CE EB0B                        jmp .rc_done
   492                                  
   493                                  .rc_vga:
   494 000002D0 E81000                      call apply_palette_vga
   495 000002D3 EB06                        jmp .rc_done
   496                                  
   497                                  .rc_ega:
   498 000002D5 E8AB00                      call res_build_ega_shadow
   499 000002D8 E88000                      call apply_palette_ega
   500                                  
   501                                  .rc_done:
   502 000002DB 07                          pop es
   503 000002DC 5F                          pop di
   504 000002DD 5E                          pop si
   505 000002DE 5A                          pop dx
   506 000002DF 59                          pop cx
   507 000002E0 5B                          pop bx
   508 000002E1 58                          pop ax
   509 000002E2 C3                          ret
   510                                  
   511                                  ; ============================================================================
   512                                  ; apply_palette_vga — Table-driven VGA DAC write + ATC programming
   513                                  ; Reads from palette_rgb[], uses color_to_dac[] for mapping.
   514                                  ; All addresses via CS: since this runs from the TSR.
   515                                  ; ============================================================================
   516                                  apply_palette_vga:
   517 000002E3 50                          push ax
   518 000002E4 53                          push bx
   519 000002E5 51                          push cx
   520 000002E6 52                          push dx
   521 000002E7 56                          push si
   522 000002E8 57                          push di
   523                                  
   524                                      ; Build 48-byte DAC table from palette_rgb using color_to_dac mapping
   525 000002E9 BE[3E00]                    mov si, color_to_dac
   526 000002EC BF[B600]                    mov di, dac_table
   527 000002EF B91000                      mov cx, 16
   528                                  .build_dac:
   529 000002F2 2E8A04                      mov al, [cs:si]            ; AL = user color index (0-3)
   530 000002F5 46                          inc si
   531                                      ; Multiply by 3 for palette_rgb offset
   532 000002F6 88C3                        mov bl, al
   533 000002F8 D0E3                        shl bl, 1
   534 000002FA 00C3                        add bl, al                 ; BL = index * 3
   535 000002FC 30FF                        xor bh, bh
   536 000002FE 2E8A87[2200]                mov al, [cs:palette_rgb + bx]
   537 00000303 2E8805                      mov [cs:di], al
   538 00000306 2E8A87[2300]                mov al, [cs:palette_rgb + bx + 1]
   539 0000030B 2E884501                    mov [cs:di + 1], al
   540 0000030F 2E8A87[2400]                mov al, [cs:palette_rgb + bx + 2]
   541 00000314 2E884502                    mov [cs:di + 2], al
   542 00000318 83C703                      add di, 3
   543 0000031B E2D5                        loop .build_dac
   544                                  
   545                                      ; Write all 16 DAC entries starting at index 0
   546 0000031D BAC803                      mov dx, VGA_DAC_WRITE_IDX
   547 00000320 30C0                        xor al, al
   548 00000322 EE                          out dx, al
   549 00000323 BE[B600]                    mov si, dac_table
   550 00000326 B93000                      mov cx, 48
   551 00000329 BAC903                      mov dx, VGA_DAC_DATA
   552                                  .write_dac:
   553 0000032C 2E8A04                      mov al, [cs:si]
   554 0000032F 46                          inc si
   555 00000330 EE                          out dx, al
   556 00000331 E2F9                        loop .write_dac
   557                                  
   558                                      ; Program ATC[0-15] for conflict-free routing
   559 00000333 FA                          cli
   560 00000334 BADA03                      mov dx, INPUT_STATUS_1
   561 00000337 EC                          in al, dx                  ; Reset ATC flip-flop
   562                                  
   563 00000338 31DB                        xor bx, bx
   564                                  .write_atc:
   565 0000033A BAC003                      mov dx, ATC_ADDR_DATA
   566 0000033D 88D8                        mov al, bl
   567 0000033F EE                          out dx, al
   568 00000340 EB00                        jmp short $+2
   569 00000342 2E8A87[4E00]                mov al, [cs:vga_atc_init + bx]
   570 00000347 EE                          out dx, al
   571 00000348 EB00                        jmp short $+2
   572 0000034A 43                          inc bx
   573 0000034B 83FB10                      cmp bx, 16
   574 0000034E 72EA                        jb .write_atc
   575                                  
   576 00000350 B020                        mov al, 0x20               ; Re-enable screen
   577 00000352 EE                          out dx, al
   578 00000353 FB                          sti
   579                                  
   580 00000354 5F                          pop di
   581 00000355 5E                          pop si
   582 00000356 5A                          pop dx
   583 00000357 59                          pop cx
   584 00000358 5B                          pop bx
   585 00000359 58                          pop ax
   586 0000035A C3                          ret
   587                                  
   588                                  ; ============================================================================
   589                                  ; apply_palette_ega — Write 16-entry atc_shadow[] to EGA ATC ports
   590                                  ; ============================================================================
   591                                  apply_palette_ega:
   592 0000035B 50                          push ax
   593 0000035C 53                          push bx
   594 0000035D 52                          push dx
   595                                  
   596 0000035E FA                          cli
   597 0000035F BADA03                      mov dx, INPUT_STATUS_1
   598 00000362 EC                          in al, dx
   599                                  
   600 00000363 31DB                        xor bx, bx
   601                                  .ega_loop:
   602 00000365 BAC003                      mov dx, ATC_ADDR_DATA
   603 00000368 88D8                        mov al, bl
   604 0000036A EE                          out dx, al
   605 0000036B EB00                        jmp short $+2
   606 0000036D 2E8A87[2E00]                mov al, [cs:atc_shadow + bx]
   607 00000372 EE                          out dx, al
   608 00000373 EB00                        jmp short $+2
   609 00000375 43                          inc bx
   610 00000376 83FB10                      cmp bx, 16
   611 00000379 72EA                        jb .ega_loop
   612                                  
   613 0000037B B020                        mov al, 0x20
   614 0000037D EE                          out dx, al
   615 0000037E FB                          sti
   616                                  
   617 0000037F 5A                          pop dx
   618 00000380 5B                          pop bx
   619 00000381 58                          pop ax
   620 00000382 C3                          ret
   621                                  
   622                                  ; ============================================================================
   623                                  ; res_build_ega_shadow — Convert palette_rgb to EGA values, fill atc_shadow
   624                                  ; ============================================================================
   625                                  res_build_ega_shadow:
   626 00000383 50                          push ax
   627 00000384 53                          push bx
   628 00000385 51                          push cx
   629 00000386 56                          push si
   630 00000387 57                          push di
   631                                  
   632                                      ; Start with CGA defaults
   633 00000388 BE[5E00]                    mov si, cga_ega_default
   634 0000038B BF[2E00]                    mov di, atc_shadow
   635 0000038E B91000                      mov cx, 16
   636                                  .copy_defaults:
   637 00000391 2E8A04                      mov al, [cs:si]
   638 00000394 2E8805                      mov [cs:di], al
   639 00000397 46                          inc si
   640 00000398 47                          inc di
   641 00000399 E2F6                        loop .copy_defaults
   642                                  
   643                                      ; Convert 4 RGB colors to EGA 6-bit values in ega_tmp
   644 0000039B BE[2200]                    mov si, palette_rgb
   645 0000039E BF[E600]                    mov di, ega_tmp
   646 000003A1 B90400                      mov cx, 4
   647                                  .conv_loop:
   648 000003A4 30DB                        xor bl, bl
   649 000003A6 2E8A04                      mov al, [cs:si]            ; Red
   650 000003A9 46                          inc si
   651 000003AA 3C20                        cmp al, 32
   652 000003AC 7205                        jb .r_half
   653 000003AE 80CB04                      or bl, 0x04
   654 000003B1 EB07                        jmp .r_done
   655                                  .r_half:
   656 000003B3 3C10                        cmp al, 16
   657 000003B5 7203                        jb .r_done
   658 000003B7 80CB20                      or bl, 0x20
   659                                  .r_done:
   660 000003BA 2E8A04                      mov al, [cs:si]            ; Green
   661 000003BD 46                          inc si
   662 000003BE 3C20                        cmp al, 32
   663 000003C0 7205                        jb .g_half
   664 000003C2 80CB02                      or bl, 0x02
   665 000003C5 EB07                        jmp .g_done
   666                                  .g_half:
   667 000003C7 3C10                        cmp al, 16
   668 000003C9 7203                        jb .g_done
   669 000003CB 80CB10                      or bl, 0x10
   670                                  .g_done:
   671 000003CE 2E8A04                      mov al, [cs:si]            ; Blue
   672 000003D1 46                          inc si
   673 000003D2 3C20                        cmp al, 32
   674 000003D4 7205                        jb .b_half
   675 000003D6 80CB01                      or bl, 0x01
   676 000003D9 EB07                        jmp .b_done
   677                                  .b_half:
   678 000003DB 3C10                        cmp al, 16
   679 000003DD 7203                        jb .b_done
   680 000003DF 80CB08                      or bl, 0x08
   681                                  .b_done:
   682 000003E2 2E881D                      mov [cs:di], bl
   683 000003E5 47                          inc di
   684 000003E6 E2BC                        loop .conv_loop
   685                                  
   686                                      ; Place EGA values into atc_shadow at all CGA mode 4 positions
   687 000003E8 2EA0[E600]                  mov al, [cs:ega_tmp+0]
   688 000003EC 2EA2[2E00]                  mov [cs:atc_shadow+0], al
   689                                  
   690 000003F0 2EA0[E700]                  mov al, [cs:ega_tmp+1]
   691 000003F4 2EA2[3000]                  mov [cs:atc_shadow+2], al
   692 000003F8 2EA2[3100]                  mov [cs:atc_shadow+3], al
   693 000003FC 2EA2[3800]                  mov [cs:atc_shadow+10], al
   694 00000400 2EA2[3900]                  mov [cs:atc_shadow+11], al
   695                                  
   696 00000404 2EA0[E800]                  mov al, [cs:ega_tmp+2]
   697 00000408 2EA2[3200]                  mov [cs:atc_shadow+4], al
   698 0000040C 2EA2[3300]                  mov [cs:atc_shadow+5], al
   699 00000410 2EA2[3A00]                  mov [cs:atc_shadow+12], al
   700 00000414 2EA2[3B00]                  mov [cs:atc_shadow+13], al
   701                                  
   702 00000418 2EA0[E900]                  mov al, [cs:ega_tmp+3]
   703 0000041C 2EA2[3400]                  mov [cs:atc_shadow+6], al
   704 00000420 2EA2[3500]                  mov [cs:atc_shadow+7], al
   705 00000424 2EA2[3C00]                  mov [cs:atc_shadow+14], al
   706 00000428 2EA2[3D00]                  mov [cs:atc_shadow+15], al
   707                                  
   708 0000042C 5F                          pop di
   709 0000042D 5E                          pop si
   710 0000042E 59                          pop cx
   711 0000042F 5B                          pop bx
   712 00000430 58                          pop ax
   713 00000431 C3                          ret
   714                                  
   715                                  ; ============================================================================
   716                                  ; RESIDENT ADJUSTMENT ROUTINES
   717                                  ; These operate on palette_rgb (colors 1-3 only, skip background at offset 0).
   718                                  ; All use CS: segment override since they run from the TSR.
   719                                  ; ============================================================================
   720                                  
   721                                  ; --- res_brighten: Add 8 to each RGB channel, clamp at 63 ---
   722                                  res_brighten:
   723 00000432 51                          push cx
   724 00000433 56                          push si
   725 00000434 BE[2500]                    mov si, palette_rgb + 3    ; skip color 0
   726 00000437 B90900                      mov cx, 9
   727                                  .loop:
   728 0000043A 2E8A04                      mov al, [cs:si]
   729 0000043D 0408                        add al, 8
   730 0000043F 3C3F                        cmp al, 63
   731 00000441 7602                        jbe .ok
   732 00000443 B03F                        mov al, 63
   733                                  .ok:
   734 00000445 2E8804                      mov [cs:si], al
   735 00000448 46                          inc si
   736 00000449 E2EF                        loop .loop
   737 0000044B 5E                          pop si
   738 0000044C 59                          pop cx
   739 0000044D C3                          ret
   740                                  
   741                                  ; --- res_dim: Subtract 8 from each RGB channel, clamp at 0 ---
   742                                  res_dim:
   743 0000044E 51                          push cx
   744 0000044F 56                          push si
   745 00000450 BE[2500]                    mov si, palette_rgb + 3
   746 00000453 B90900                      mov cx, 9
   747                                  .loop:
   748 00000456 2E8A04                      mov al, [cs:si]
   749 00000459 2C08                        sub al, 8
   750 0000045B 7302                        jnc .ok
   751 0000045D 30C0                        xor al, al
   752                                  .ok:
   753 0000045F 2E8804                      mov [cs:si], al
   754 00000462 46                          inc si
   755 00000463 E2F1                        loop .loop
   756 00000465 5E                          pop si
   757 00000466 59                          pop cx
   758 00000467 C3                          ret
   759                                  
   760                                  ; --- res_saturation_boost: ch + (ch - gray) / 2, clamp 0-63 ---
   761                                  res_saturation_boost:
   762 00000468 53                          push bx
   763 00000469 51                          push cx
   764 0000046A 56                          push si
   765 0000046B BE[2500]                    mov si, palette_rgb + 3
   766 0000046E B90300                      mov cx, 3                  ; 3 color triples
   767                                  .color:
   768 00000471 31C0                        xor ax, ax
   769 00000473 2E8A04                      mov al, [cs:si]
   770 00000476 2E024401                    add al, [cs:si+1]
   771 0000047A 2E024402                    add al, [cs:si+2]         ; AL = R+G+B
   772 0000047E B303                        mov bl, 3
   773 00000480 F6F3                        div bl                     ; AL = gray
   774 00000482 88C3                        mov bl, al                 ; BL = gray
   775                                  
   776 00000484 51                          push cx
   777 00000485 B90300                      mov cx, 3
   778                                  .ch:
   779 00000488 2E8A04                      mov al, [cs:si]
   780 0000048B 28D8                        sub al, bl                 ; AL = ch - gray (signed)
   781 0000048D D0F8                        sar al, 1                 ; AL = (ch - gray) / 2
   782 0000048F 2E0204                      add al, [cs:si]           ; AL = ch + (ch - gray) / 2
   783 00000492 84C0                        test al, al
   784 00000494 7904                        jns .not_neg
   785 00000496 30C0                        xor al, al
   786 00000498 EB06                        jmp .store
   787                                  .not_neg:
   788 0000049A 3C3F                        cmp al, 63
   789 0000049C 7602                        jbe .store
   790 0000049E B03F                        mov al, 63
   791                                  .store:
   792 000004A0 2E8804                      mov [cs:si], al
   793 000004A3 46                          inc si
   794 000004A4 E2E2                        loop .ch
   795 000004A6 59                          pop cx
   796 000004A7 E2C8                        loop .color
   797 000004A9 5E                          pop si
   798 000004AA 59                          pop cx
   799 000004AB 5B                          pop bx
   800 000004AC C3                          ret
   801                                  
   802                                  ; --- res_saturation_mute: (ch + gray) / 2 ---
   803                                  res_saturation_mute:
   804 000004AD 53                          push bx
   805 000004AE 51                          push cx
   806 000004AF 56                          push si
   807 000004B0 BE[2500]                    mov si, palette_rgb + 3
   808 000004B3 B90300                      mov cx, 3
   809                                  .color:
   810 000004B6 31C0                        xor ax, ax
   811 000004B8 2E8A04                      mov al, [cs:si]
   812 000004BB 2E024401                    add al, [cs:si+1]
   813 000004BF 2E024402                    add al, [cs:si+2]
   814 000004C3 B303                        mov bl, 3
   815 000004C5 F6F3                        div bl
   816 000004C7 88C3                        mov bl, al                 ; BL = gray
   817                                  
   818 000004C9 51                          push cx
   819 000004CA B90300                      mov cx, 3
   820                                  .ch:
   821 000004CD 2E8A04                      mov al, [cs:si]
   822 000004D0 00D8                        add al, bl
   823 000004D2 D0E8                        shr al, 1                 ; (ch + gray) / 2
   824 000004D4 2E8804                      mov [cs:si], al
   825 000004D7 46                          inc si
   826 000004D8 E2F3                        loop .ch
   827 000004DA 59                          pop cx
   828 000004DB E2D9                        loop .color
   829 000004DD 5E                          pop si
   830 000004DE 59                          pop cx
   831 000004DF 5B                          pop bx
   832 000004E0 C3                          ret
   833                                  
   834                                  ; --- res_contrast_boost: ch + (ch - 31) / 2, clamp 0-63 ---
   835                                  res_contrast_boost:
   836 000004E1 51                          push cx
   837 000004E2 56                          push si
   838 000004E3 BE[2500]                    mov si, palette_rgb + 3
   839 000004E6 B90900                      mov cx, 9
   840                                  .loop:
   841 000004E9 2E8A04                      mov al, [cs:si]
   842 000004EC 2C1F                        sub al, 31                 ; signed
   843 000004EE D0F8                        sar al, 1
   844 000004F0 2E0204                      add al, [cs:si]
   845 000004F3 84C0                        test al, al
   846 000004F5 7904                        jns .not_neg
   847 000004F7 30C0                        xor al, al
   848 000004F9 EB06                        jmp .store
   849                                  .not_neg:
   850 000004FB 3C3F                        cmp al, 63
   851 000004FD 7602                        jbe .store
   852 000004FF B03F                        mov al, 63
   853                                  .store:
   854 00000501 2E8804                      mov [cs:si], al
   855 00000504 46                          inc si
   856 00000505 E2E2                        loop .loop
   857 00000507 5E                          pop si
   858 00000508 59                          pop cx
   859 00000509 C3                          ret
   860                                  
   861                                  ; ============================================================================
   862                                  ; End of resident section
   863                                  ; ============================================================================
   864                                  tsr_end:
   865                                  
   866                                  ; ============================================================================
   867                                  ; =====================  TRANSIENT SECTION  ==================================
   868                                  ; ============================================================================
   869                                  ; Everything below is discarded after going TSR.
   870                                  ; ============================================================================
   871                                  
   872                                  ; ============================================================================
   873                                  ; Main installer entry point
   874                                  ; ============================================================================
   875                                  main:
   876 0000050A BA[360E]                    mov dx, msg_banner
   877 0000050D E81F09                      call print_string
   878                                  
   879                                      ; Detect EGA/VGA
   880 00000510 E89901                      call detect_video
   881 00000513 803E[1200]00                cmp byte [video_type], 0
   882 00000518 743E                        je .no_adapter
   883                                  
   884                                      ; Check for /U (uninstall) first
   885 0000051A E87402                      call check_uninstall
   886 0000051D 3C01                        cmp al, 1
   887 0000051F 7503E97E01                  je .do_uninstall
   888                                  
   889                                      ; Parse all command-line switches
   890 00000524 E89202                      call check_switches
   891 00000527 50                          push ax                    ; save switch result
   892 00000528 E8EC03                      call parse_bg_color
   893 0000052B E89204                      call parse_fg_colors
   894 0000052E 58                          pop ax
   895 0000052F 803E[BF18]00                cmp byte [parse_error], 0
   896 00000534 7403E96E01                  jne .exit_no_tsr
   897 00000539 3C01                        cmp al, 1
   898 0000053B 7424                        je .show_help
   899 0000053D 3C02                        cmp al, 2
   900 0000053F 7445                        je .do_reset_install
   901 00000541 3C03                        cmp al, 3
   902 00000543 744C                        je .preset_1
   903 00000545 3C04                        cmp al, 4
   904 00000547 7453                        je .preset_2
   905 00000549 3C05                        cmp al, 5
   906 0000054B 745A                        je .preset_3
   907 0000054D 3C06                        cmp al, 6
   908 0000054F 7461                        je .preset_4
   909 00000551 3C07                        cmp al, 7
   910 00000553 7468                        je .preset_5
   911 00000555 E98400                      jmp .load_file
   912                                  
   913                                  .no_adapter:
   914 00000558 BA[240F]                    mov dx, msg_no_adapter
   915 0000055B E8D108                      call print_string
   916 0000055E E94601                      jmp .exit_no_tsr
   917                                  
   918                                  .show_help:
   919 00000561 BA[4D0F]                    mov dx, msg_help
   920 00000564 E8C808                      call print_string
   921 00000567 BA[F711]                    mov dx, msg_pause
   922 0000056A E8C208                      call print_string
   923                                  .flush_kb:
   924 0000056D B401                        mov ah, 0x01
   925 0000056F CD16                        int 0x16
   926 00000571 7406                        jz .wait_key
   927 00000573 B400                        mov ah, 0x00
   928 00000575 CD16                        int 0x16
   929 00000577 EBF4                        jmp .flush_kb
   930                                  .wait_key:
   931 00000579 B400                        mov ah, 0x00
   932 0000057B CD16                        int 0x16
   933 0000057D BA[1812]                    mov dx, msg_help2
   934 00000580 E8AC08                      call print_string
   935 00000583 E92101                      jmp .exit_no_tsr
   936                                  
   937                                  .do_reset_install:
   938 00000586 BA[4315]                    mov dx, msg_resetting
   939 00000589 E8A308                      call print_string
   940                                      ; Load fallback palette as base
   941 0000058C BE[6E00]                    mov si, res_preset_fallback
   942 0000058F EB37                        jmp .apply_preset
   943                                  
   944                                  .preset_1:
   945 00000591 BA[BF14]                    mov dx, msg_preset1
   946 00000594 E89808                      call print_string
   947 00000597 BE[7A00]                    mov si, res_preset_1
   948 0000059A EB2C                        jmp .apply_preset
   949                                  .preset_2:
   950 0000059C BA[D814]                    mov dx, msg_preset2
   951 0000059F E88D08                      call print_string
   952 000005A2 BE[8600]                    mov si, res_preset_2
   953 000005A5 EB21                        jmp .apply_preset
   954                                  .preset_3:
   955 000005A7 BA[F114]                    mov dx, msg_preset3
   956 000005AA E88208                      call print_string
   957 000005AD BE[9200]                    mov si, res_preset_3
   958 000005B0 EB16                        jmp .apply_preset
   959                                  .preset_4:
   960 000005B2 BA[0815]                    mov dx, msg_preset4
   961 000005B5 E87708                      call print_string
   962 000005B8 BE[9E00]                    mov si, res_preset_4
   963 000005BB EB0B                        jmp .apply_preset
   964                                  .preset_5:
   965 000005BD BA[2615]                    mov dx, msg_preset5
   966 000005C0 E86C08                      call print_string
   967 000005C3 BE[AA00]                    mov si, res_preset_5
   968 000005C6 EB00                        jmp .apply_preset
   969                                  
   970                                  .apply_preset:
   971                                      ; Copy 12 bytes from preset to config_buffer
   972 000005C8 BF[5719]                    mov di, config_buffer
   973 000005CB B90C00                      mov cx, 12
   974 000005CE FC                          cld
   975 000005CF F3A4                        rep movsb
   976 000005D1 E8BE04                      call apply_bg_override
   977 000005D4 E8D504                      call apply_fg_override
   978 000005D7 E8E604                      call apply_adjustments
   979 000005DA EB2E                        jmp .do_install
   980                                  
   981                                  .load_file:
   982 000005DC E8E305                      call load_config
   983 000005DF 7210                        jc .use_fallback
   984 000005E1 E87607                      call validate_palette
   985 000005E4 720B                        jc .use_fallback
   986 000005E6 E8A904                      call apply_bg_override
   987 000005E9 E8C004                      call apply_fg_override
   988 000005EC E8D104                      call apply_adjustments
   989 000005EF EB19                        jmp .do_install
   990                                  
   991                                  .use_fallback:
   992                                      ; Only show message if user explicitly specified a file
   993 000005F1 803E[BE18]01                cmp byte [explicit_file], 1
   994 000005F6 7506                        jne .skip_fallback_msg
   995 000005F8 BA[BB16]                    mov dx, msg_fallback
   996 000005FB E83108                      call print_string
   997                                  .skip_fallback_msg:
   998 000005FE E87507                      call load_fallback_to_config
   999 00000601 E88E04                      call apply_bg_override
  1000 00000604 E8A504                      call apply_fg_override
  1001 00000607 E8B604                      call apply_adjustments
  1002                                  
  1003                                  .do_install:
  1004                                      ; Copy final config_buffer → base_palette AND palette_rgb
  1005 0000060A BE[5719]                    mov si, config_buffer
  1006 0000060D BF[1600]                    mov di, base_palette
  1007 00000610 B90C00                      mov cx, 12
  1008 00000613 FC                          cld
  1009 00000614 F3A4                        rep movsb
  1010 00000616 BE[5719]                    mov si, config_buffer
  1011 00000619 BF[2200]                    mov di, palette_rgb
  1012 0000061C B90C00                      mov cx, 12
  1013 0000061F FC                          cld
  1014 00000620 F3A4                        rep movsb
  1015                                  
  1016                                      ; Reset adjustment state
  1017 00000622 C606[1300]00                mov byte [adj_brightness], 0
  1018 00000627 C606[1400]00                mov byte [adj_vivid], 0
  1019 0000062C C606[1500]00                mov byte [adj_pop], 0
  1020                                  
  1021                                      ; Print loaded colors
  1022 00000631 E85507                      call print_colors
  1023                                  
  1024                                      ; Build EGA shadow if needed
  1025 00000634 803E[1200]01                cmp byte [video_type], 1
  1026 00000639 7503                        jne .skip_ega_init
  1027 0000063B E845FD                      call res_build_ega_shadow
  1028                                  .skip_ega_init:
  1029                                  
  1030                                      ; Apply palette now (preview in text mode)
  1031 0000063E 803E[1200]02                cmp byte [video_type], 2
  1032 00000643 7405                        je .apply_vga_now
  1033 00000645 E813FD                      call apply_palette_ega
  1034 00000648 EB0A                        jmp .check_installed
  1035                                  .apply_vga_now:
  1036                                      ; On VGA, also disable BIOS palette reload (belt-and-suspenders with hook)
  1037 0000064A B80112                      mov ax, 0x1201
  1038 0000064D B331                        mov bl, 0x31
  1039 0000064F CD10                        int 0x10
  1040 00000651 E88FFC                      call apply_palette_vga
  1041                                  
  1042                                  .check_installed:
  1043 00000654 E8AF00                      call check_already_loaded
  1044 00000657 3C01                        cmp al, 1
  1045 00000659 743F                        je .already_loaded
  1046                                  
  1047                                      ; Save original INT 10h
  1048 0000065B B81035                      mov ax, 0x3510
  1049 0000065E CD21                        int 0x21
  1050 00000660 8C06[0C00]                  mov [orig_int10_seg], es
  1051 00000664 891E[0A00]                  mov [orig_int10_ofs], bx
  1052                                  
  1053                                      ; Save original INT 09h
  1054 00000668 B80935                      mov ax, 0x3509
  1055 0000066B CD21                        int 0x21
  1056 0000066D 8C06[1000]                  mov [orig_int09_seg], es
  1057 00000671 891E[0E00]                  mov [orig_int09_ofs], bx
  1058                                  
  1059                                      ; Install INT 10h hook
  1060 00000675 B81025                      mov ax, 0x2510
  1061 00000678 BA[EA00]                    mov dx, tsr_int10
  1062 0000067B CD21                        int 0x21
  1063                                  
  1064                                      ; Install INT 09h hook
  1065 0000067D B80925                      mov ax, 0x2509
  1066 00000680 BA[1B01]                    mov dx, tsr_int09
  1067 00000683 CD21                        int 0x21
  1068                                  
  1069 00000685 BA[6015]                    mov dx, msg_installed
  1070 00000688 E8A407                      call print_string
  1071                                  
  1072                                      ; Go resident — compute size in paragraphs
  1073 0000068B BA[0A05]                    mov dx, tsr_end
  1074 0000068E 83C20F                      add dx, 15
  1075 00000691 B104                        mov cl, 4
  1076 00000693 D3EA                        shr dx, cl
  1077 00000695 B80031                      mov ax, 0x3100
  1078 00000698 CD21                        int 0x21
  1079                                  
  1080                                  .already_loaded:
  1081 0000069A BA[F315]                    mov dx, msg_already_loaded
  1082 0000069D E88F07                      call print_string
  1083 000006A0 EB05                        jmp .exit_no_tsr
  1084                                  
  1085                                  .do_uninstall:
  1086 000006A2 E88800                      call uninstall_tsr
  1087 000006A5 EB00                        jmp .exit_no_tsr
  1088                                  
  1089                                  .exit_no_tsr:
  1090 000006A7 B8004C                      mov ax, 0x4C00
  1091 000006AA CD21                        int 0x21
  1092                                  
  1093                                  ; ============================================================================
  1094                                  ; detect_video — Set [video_type]: 0=none, 1=EGA, 2=VGA
  1095                                  ; ============================================================================
  1096                                  detect_video:
  1097 000006AC 50                          push ax
  1098 000006AD 53                          push bx
  1099 000006AE 51                          push cx
  1100                                  
  1101                                      ; Try VGA first (INT 10h AX=1A00h)
  1102 000006AF B8001A                      mov ax, 0x1A00
  1103 000006B2 CD10                        int 0x10
  1104 000006B4 3C1A                        cmp al, 0x1A
  1105 000006B6 750A                        jne .try_ega
  1106 000006B8 80FB08                      cmp bl, 0x08               ; VGA analog color
  1107 000006BB 7433                        je .is_vga
  1108 000006BD 80FB07                      cmp bl, 0x07               ; VGA analog mono
  1109 000006C0 742E                        je .is_vga
  1110                                  
  1111                                  .try_ega:
  1112 000006C2 B80012                      mov ax, 0x1200
  1113 000006C5 B310                        mov bl, 0x10
  1114 000006C7 CD10                        int 0x10
  1115 000006C9 80FB10                      cmp bl, 0x10
  1116 000006CC 742F                        je .not_found
  1117                                  
  1118                                      ; Distinguish EGA from VGA
  1119 000006CE B8001A                      mov ax, 0x1A00
  1120 000006D1 CD10                        int 0x10
  1121 000006D3 3C1A                        cmp al, 0x1A
  1122 000006D5 740D                        je .check_vga_again
  1123                                  
  1124                                  .is_ega:
  1125 000006D7 C606[1200]01                mov byte [video_type], 1
  1126 000006DC BA[B60E]                    mov dx, msg_detected_ega
  1127 000006DF E84D07                      call print_string
  1128 000006E2 EB1E                        jmp .done
  1129                                  
  1130                                  .check_vga_again:
  1131 000006E4 80FB08                      cmp bl, 0x08
  1132 000006E7 7407                        je .is_vga
  1133 000006E9 80FB07                      cmp bl, 0x07
  1134 000006EC 7402                        je .is_vga
  1135 000006EE EB00                        jmp .is_vga                ; VGA BIOS present, treat as VGA
  1136                                  
  1137                                  .is_vga:
  1138 000006F0 C606[1200]02                mov byte [video_type], 2
  1139 000006F5 BA[EB0E]                    mov dx, msg_detected_vga
  1140 000006F8 E83407                      call print_string
  1141 000006FB EB05                        jmp .done
  1142                                  
  1143                                  .not_found:
  1144 000006FD C606[1200]00                mov byte [video_type], 0
  1145                                  
  1146                                  .done:
  1147 00000702 59                          pop cx
  1148 00000703 5B                          pop bx
  1149 00000704 58                          pop ax
  1150 00000705 C3                          ret
  1151                                  
  1152                                  ; ============================================================================
  1153                                  ; check_already_loaded — AL=1 if TSR signature found at INT 10h handler
  1154                                  ; ============================================================================
  1155                                  check_already_loaded:
  1156 00000706 53                          push bx
  1157 00000707 51                          push cx
  1158 00000708 56                          push si
  1159 00000709 57                          push di
  1160 0000070A 06                          push es
  1161                                  
  1162                                      ; Get current INT 10h vector
  1163 0000070B B81035                      mov ax, 0x3510
  1164 0000070E CD21                        int 0x21
  1165                                      ; ES:BX → current INT 10h handler
  1166                                      ; Check if it points to our signature
  1167                                      ; Our TSR has: jmp main, then tsr_sig at known offset
  1168                                      ; The signature 'PalSwap' is at tsr_sig in seg pointed to by ES
  1169 00000710 BF[0300]                    mov di, tsr_sig             ; offset of signature in our code
  1170 00000713 BE[0300]                    mov si, tsr_sig             ; compare against our own copy
  1171 00000716 B90700                      mov cx, 7
  1172 00000719 1E                          push ds
  1173 0000071A 0E                          push cs
  1174 0000071B 1F                          pop ds                     ; DS:SI = CS:tsr_sig
  1175 0000071C F3A6                        repe cmpsb                 ; compare ES:DI vs DS:SI
  1176 0000071E 1F                          pop ds
  1177 0000071F 7504                        jne .not_loaded
  1178                                  
  1179 00000721 B001                        mov al, 1
  1180 00000723 EB02                        jmp .cal_done
  1181                                  
  1182                                  .not_loaded:
  1183 00000725 30C0                        xor al, al
  1184                                  
  1185                                  .cal_done:
  1186 00000727 07                          pop es
  1187 00000728 5F                          pop di
  1188 00000729 5E                          pop si
  1189 0000072A 59                          pop cx
  1190 0000072B 5B                          pop bx
  1191 0000072C C3                          ret
  1192                                  
  1193                                  ; ============================================================================
  1194                                  ; uninstall_tsr — Restore original INT 09h + INT 10h, free TSR memory
  1195                                  ; ============================================================================
  1196                                  uninstall_tsr:
  1197 0000072D 50                          push ax
  1198 0000072E 53                          push bx
  1199 0000072F 52                          push dx
  1200 00000730 1E                          push ds
  1201 00000731 06                          push es
  1202                                  
  1203                                      ; Get current INT 10h vector to find our TSR segment
  1204 00000732 B81035                      mov ax, 0x3510
  1205 00000735 CD21                        int 0x21
  1206                                      ; ES:BX → current handler; verify signature
  1207 00000737 BF[0300]                    mov di, tsr_sig
  1208 0000073A BE[0300]                    mov si, tsr_sig
  1209 0000073D B90700                      mov cx, 7
  1210 00000740 1E                          push ds
  1211 00000741 0E                          push cs
  1212 00000742 1F                          pop ds
  1213 00000743 F3A6                        repe cmpsb
  1214 00000745 1F                          pop ds
  1215 00000746 753B                        jne .not_us
  1216                                  
  1217                                      ; ES = TSR segment. Restore original INT 10h from TSR's saved values.
  1218 00000748 B81025                      mov ax, 0x2510
  1219 0000074B 26FF36[0C00]                push word [es:orig_int10_seg]
  1220 00000750 1F                          pop ds
  1221 00000751 268B16[0A00]                mov dx, [es:orig_int10_ofs]
  1222 00000756 CD21                        int 0x21
  1223                                  
  1224                                      ; Restore original INT 09h
  1225 00000758 0E                          push cs
  1226 00000759 1F                          pop ds                     ; restore DS for later
  1227 0000075A B80925                      mov ax, 0x2509
  1228 0000075D 26FF36[1000]                push word [es:orig_int09_seg]
  1229 00000762 1F                          pop ds
  1230 00000763 268B16[0E00]                mov dx, [es:orig_int09_ofs]
  1231 00000768 CD21                        int 0x21
  1232                                  
  1233                                      ; Free TSR memory block (ES = segment)
  1234 0000076A B449                        mov ah, 0x49
  1235 0000076C CD21                        int 0x21
  1236                                  
  1237 0000076E 0E                          push cs
  1238 0000076F 1F                          pop ds                     ; ensure DS = CS for print_string
  1239                                  
  1240                                      ; On VGA, re-enable default palette loading
  1241 00000770 803E[1200]02                cmp byte [video_type], 2
  1242 00000775 7507                        jne .skip_reenable
  1243 00000777 B80012                      mov ax, 0x1200             ; AL=00 = enable palette reload
  1244 0000077A B331                        mov bl, 0x31
  1245 0000077C CD10                        int 0x10
  1246                                  .skip_reenable:
  1247                                  
  1248 0000077E BA[3616]                    mov dx, msg_unloaded
  1249 00000781 EB03                        jmp .ui_msg
  1250                                  
  1251                                  .not_us:
  1252 00000783 BA[6A16]                    mov dx, msg_unload_error
  1253                                  
  1254                                  .ui_msg:
  1255 00000786 0E                          push cs
  1256 00000787 1F                          pop ds
  1257 00000788 E8A406                      call print_string
  1258                                  
  1259 0000078B 07                          pop es
  1260 0000078C 1F                          pop ds
  1261 0000078D 5A                          pop dx
  1262 0000078E 5B                          pop bx
  1263 0000078F 58                          pop ax
  1264 00000790 C3                          ret
  1265                                  
  1266                                  ; ============================================================================
  1267                                  ; check_uninstall — AL=1 if /U found on command line
  1268                                  ; ============================================================================
  1269                                  check_uninstall:
  1270 00000791 56                          push si
  1271 00000792 BE8100                      mov si, 0x81
  1272                                  .skip:
  1273 00000795 AC                          lodsb
  1274 00000796 3C20                        cmp al, ' '
  1275 00000798 74FB                        je .skip
  1276 0000079A 3C0D                        cmp al, 0x0D
  1277 0000079C 7413                        je .none
  1278 0000079E 3C2F                        cmp al, '/'
  1279 000007A0 7406                        je .slash
  1280 000007A2 3C2D                        cmp al, '-'
  1281 000007A4 7402                        je .slash
  1282 000007A6 EB09                        jmp .none
  1283                                  .slash:
  1284 000007A8 AC                          lodsb
  1285 000007A9 3C55                        cmp al, 'U'
  1286 000007AB 7408                        je .yes
  1287 000007AD 3C75                        cmp al, 'u'
  1288 000007AF 7404                        je .yes
  1289                                  .none:
  1290 000007B1 30C0                        xor al, al
  1291 000007B3 EB02                        jmp .done
  1292                                  .yes:
  1293 000007B5 B001                        mov al, 1
  1294                                  .done:
  1295 000007B7 5E                          pop si
  1296 000007B8 C3                          ret
  1297                                  
  1298                                  ; ============================================================================
  1299                                  ; check_switches — Multi-pass scanner. Returns AL:
  1300                                  ;   0=none/file, 1=help, 2=reset, 3-7=presets
  1301                                  ; Also sets [brightness_adj], [vivid_adj], [pop_flag] from modifiers.
  1302                                  ; ============================================================================
  1303                                  check_switches:
  1304 000007B9 56                          push si
  1305 000007BA BE8100                      mov si, 0x81
  1306                                  
  1307                                  .skip_spaces:
  1308 000007BD AC                          lodsb
  1309 000007BE 3C20                        cmp al, ' '
  1310 000007C0 74FB                        je .skip_spaces
  1311 000007C2 3C0D                        cmp al, 0x0D
  1312 000007C4 7503E94901                  je .no_switch
  1313                                  
  1314 000007C9 3C2F                        cmp al, '/'
  1315 000007CB 7407                        je .check_char
  1316 000007CD 3C2D                        cmp al, '-'
  1317 000007CF 7403                        je .check_char
  1318 000007D1 E93E01                      jmp .no_switch
  1319                                  
  1320                                  .check_char:
  1321 000007D4 AC                          lodsb
  1322 000007D5 3C3F                        cmp al, '?'
  1323 000007D7 7503E9F600                  je .is_help
  1324 000007DC 3C48                        cmp al, 'H'
  1325 000007DE 7503E9EF00                  je .is_help
  1326 000007E3 3C68                        cmp al, 'h'
  1327 000007E5 7503E9E800                  je .is_help
  1328 000007EA 3C52                        cmp al, 'R'
  1329 000007EC 7503E9E800                  je .is_reset
  1330 000007F1 3C72                        cmp al, 'r'
  1331 000007F3 7503E9E100                  je .is_reset
  1332 000007F8 3C55                        cmp al, 'U'
  1333 000007FA 745B                        je .skip_token              ; /U handled separately
  1334 000007FC 3C75                        cmp al, 'u'
  1335 000007FE 7457                        je .skip_token
  1336 00000800 3C62                        cmp al, 'b'
  1337 00000802 7464                        je .skip_bg_switch
  1338 00000804 3C42                        cmp al, 'B'
  1339 00000806 7460                        je .skip_bg_switch
  1340 00000808 3C63                        cmp al, 'c'
  1341 0000080A 745C                        je .skip_c_switch
  1342 0000080C 3C43                        cmp al, 'C'
  1343 0000080E 7458                        je .skip_c_switch
  1344 00000810 3C64                        cmp al, 'd'
  1345 00000812 746D                        je .parse_dim_switch
  1346 00000814 3C44                        cmp al, 'D'
  1347 00000816 7469                        je .parse_dim_switch
  1348 00000818 3C76                        cmp al, 'v'
  1349 0000081A 7503E98000                  je .parse_vivid_switch
  1350 0000081F 3C56                        cmp al, 'V'
  1351 00000821 747C                        je .parse_vivid_switch
  1352 00000823 3C70                        cmp al, 'p'
  1353 00000825 7503E99300                  je .is_pop
  1354 0000082A 3C50                        cmp al, 'P'
  1355 0000082C 7503E98C00                  je .is_pop
  1356 00000831 3C31                        cmp al, '1'
  1357 00000833 7503E9A800                  je .is_preset1
  1358 00000838 3C32                        cmp al, '2'
  1359 0000083A 7503E9A800                  je .is_preset2
  1360 0000083F 3C33                        cmp al, '3'
  1361 00000841 7503E9A800                  je .is_preset3
  1362 00000846 3C34                        cmp al, '4'
  1363 00000848 7503E9A800                  je .is_preset4
  1364 0000084D 3C35                        cmp al, '5'
  1365 0000084F 7503E9A800                  je .is_preset5
  1366 00000854 E9AC00                      jmp .bad_switch
  1367                                  
  1368                                  .skip_token:
  1369 00000857 AC                          lodsb
  1370 00000858 3C20                        cmp al, ' '
  1371 0000085A 7503E95EFF                  je .skip_spaces
  1372 0000085F 3C0D                        cmp al, 0x0D
  1373 00000861 7503E9AC00                  je .no_switch
  1374 00000866 EBEF                        jmp .skip_token
  1375                                  
  1376                                  .skip_bg_switch:
  1377                                  .skip_c_switch:
  1378 00000868 AC                          lodsb
  1379 00000869 3C3A                        cmp al, ':'
  1380 0000086B 7403E99300                  jne .bad_switch
  1381                                  .skip_switch_arg:
  1382 00000870 AC                          lodsb
  1383 00000871 3C20                        cmp al, ' '
  1384 00000873 7503E945FF                  je .skip_spaces
  1385 00000878 3C0D                        cmp al, 0x0D
  1386 0000087A 7503E99300                  je .no_switch
  1387 0000087F EBEF                        jmp .skip_switch_arg
  1388                                  
  1389                                  .parse_dim_switch:
  1390 00000881 AC                          lodsb
  1391 00000882 3C3A                        cmp al, ':'
  1392 00000884 757D                        jne .bad_switch
  1393 00000886 AC                          lodsb
  1394 00000887 3C2B                        cmp al, '+'
  1395 00000889 7406                        je .dim_plus
  1396 0000088B 3C2D                        cmp al, '-'
  1397 0000088D 7409                        je .dim_minus
  1398 0000088F EB72                        jmp .bad_switch
  1399                                  .dim_plus:
  1400 00000891 C606[C018]01                mov byte [brightness_adj_cmd], 1
  1401 00000896 EB2A                        jmp .after_modifier
  1402                                  .dim_minus:
  1403 00000898 C606[C018]02                mov byte [brightness_adj_cmd], 2
  1404 0000089D EB23                        jmp .after_modifier
  1405                                  
  1406                                  .parse_vivid_switch:
  1407 0000089F AC                          lodsb
  1408 000008A0 3C3A                        cmp al, ':'
  1409 000008A2 755F                        jne .bad_switch
  1410 000008A4 AC                          lodsb
  1411 000008A5 3C2B                        cmp al, '+'
  1412 000008A7 7406                        je .vivid_plus
  1413 000008A9 3C2D                        cmp al, '-'
  1414 000008AB 7409                        je .vivid_minus
  1415 000008AD EB54                        jmp .bad_switch
  1416                                  .vivid_plus:
  1417 000008AF C606[C118]01                mov byte [vivid_adj_cmd], 1
  1418 000008B4 EB0C                        jmp .after_modifier
  1419                                  .vivid_minus:
  1420 000008B6 C606[C118]02                mov byte [vivid_adj_cmd], 2
  1421 000008BB EB05                        jmp .after_modifier
  1422                                  
  1423                                  .is_pop:
  1424 000008BD C606[C218]01                mov byte [pop_flag_cmd], 1
  1425                                  
  1426                                  .after_modifier:
  1427 000008C2 AC                          lodsb
  1428 000008C3 3C20                        cmp al, ' '
  1429 000008C5 7503E9F3FE                  je .skip_spaces
  1430 000008CA 3C0D                        cmp al, 0x0D
  1431 000008CC 7444                        je .no_switch
  1432 000008CE 4E                          dec si
  1433 000008CF E9EBFE                      jmp .skip_spaces
  1434                                  
  1435 000008D2 C606[C318]01            .is_help:     mov byte [switch_result], 1
  1436 000008D7 EB39                        jmp .sw_done
  1437 000008D9 C606[C318]02            .is_reset:    mov byte [switch_result], 2
  1438 000008DE EB32                        jmp .sw_done
  1439 000008E0 C606[C318]03            .is_preset1:  mov byte [switch_result], 3
  1440 000008E5 EBDB                        jmp .after_modifier
  1441 000008E7 C606[C318]04            .is_preset2:  mov byte [switch_result], 4
  1442 000008EC EBD4                        jmp .after_modifier
  1443 000008EE C606[C318]05            .is_preset3:  mov byte [switch_result], 5
  1444 000008F3 EBCD                        jmp .after_modifier
  1445 000008F5 C606[C318]06            .is_preset4:  mov byte [switch_result], 6
  1446 000008FA EBC6                        jmp .after_modifier
  1447 000008FC C606[C318]07            .is_preset5:  mov byte [switch_result], 7
  1448 00000901 EBBF                        jmp .after_modifier
  1449                                  
  1450                                  .bad_switch:
  1451 00000903 BA[D917]                    mov dx, msg_bad_switch
  1452 00000906 E82605                      call print_string
  1453 00000909 C606[BF18]01                mov byte [parse_error], 1
  1454 0000090E 30C0                        xor al, al
  1455 00000910 EB00                        jmp .sw_done
  1456                                  
  1457                                  .no_switch:
  1458                                  .sw_done:
  1459 00000912 A0[C318]                    mov al, [switch_result]
  1460 00000915 5E                          pop si
  1461 00000916 C3                          ret
  1462                                  
  1463                                  ; ============================================================================
  1464                                  ; parse_bg_color — Scan for /b:colorname, set bg_specified + bg_color
  1465                                  ; ============================================================================
  1466                                  parse_bg_color:
  1467 00000917 56                          push si
  1468 00000918 57                          push di
  1469 00000919 51                          push cx
  1470 0000091A 53                          push bx
  1471                                  
  1472 0000091B C606[C418]00                mov byte [bg_specified], 0
  1473 00000920 30ED                        xor ch, ch
  1474 00000922 8A0E8000                    mov cl, [0x80]
  1475 00000926 09C9                        or cx, cx
  1476 00000928 7503E98E00                  jz .pb_done
  1477 0000092D BE8100                      mov si, 0x81
  1478                                  
  1479                                  .pb_scan:
  1480 00000930 83F900                      cmp cx, 0
  1481 00000933 7503E98300                  je .pb_done
  1482 00000938 AC                          lodsb
  1483 00000939 49                          dec cx
  1484 0000093A 3C2F                        cmp al, '/'
  1485 0000093C 7406                        je .pb_check_b
  1486 0000093E 3C2D                        cmp al, '-'
  1487 00000940 7402                        je .pb_check_b
  1488 00000942 EBEC                        jmp .pb_scan
  1489                                  
  1490                                  .pb_check_b:
  1491 00000944 83F902                      cmp cx, 2
  1492 00000947 7272                        jb .pb_done
  1493 00000949 AC                          lodsb
  1494 0000094A 49                          dec cx
  1495 0000094B 0C20                        or al, 0x20
  1496 0000094D 3C62                        cmp al, 'b'
  1497 0000094F 75DF                        jne .pb_scan
  1498 00000951 AC                          lodsb
  1499 00000952 49                          dec cx
  1500 00000953 3C3A                        cmp al, ':'
  1501 00000955 75D9                        jne .pb_scan
  1502                                  
  1503 00000957 BB[1018]                    mov bx, bg_color_names
  1504                                  
  1505                                  .pb_try_entry:
  1506 0000095A 803F00                      cmp byte [bx], 0
  1507 0000095D 7451                        je .pb_not_found
  1508 0000095F 56                          push si
  1509 00000960 51                          push cx
  1510                                  
  1511                                  .pb_match_char:
  1512 00000961 803F00                      cmp byte [bx], 0
  1513 00000964 7410                        je .pb_check_end
  1514 00000966 83F900                      cmp cx, 0
  1515 00000969 741A                        je .pb_no_match_pop
  1516 0000096B AC                          lodsb
  1517 0000096C 49                          dec cx
  1518 0000096D 0C20                        or al, 0x20
  1519 0000096F 3A07                        cmp al, [bx]
  1520 00000971 7512                        jne .pb_no_match_pop
  1521 00000973 43                          inc bx
  1522 00000974 EBEB                        jmp .pb_match_char
  1523                                  
  1524                                  .pb_check_end:
  1525 00000976 83F900                      cmp cx, 0
  1526 00000979 741A                        je .pb_found
  1527 0000097B 8A04                        mov al, [si]
  1528 0000097D 3C20                        cmp al, ' '
  1529 0000097F 7414                        je .pb_found
  1530 00000981 3C0D                        cmp al, 0x0D
  1531 00000983 7410                        je .pb_found
  1532                                  
  1533                                  .pb_no_match_pop:
  1534 00000985 59                          pop cx
  1535 00000986 5E                          pop si
  1536                                  .pb_skip_name:
  1537 00000987 803F00                      cmp byte [bx], 0
  1538 0000098A 7403                        je .pb_skip_rgb
  1539 0000098C 43                          inc bx
  1540 0000098D EBF8                        jmp .pb_skip_name
  1541                                  .pb_skip_rgb:
  1542 0000098F 43                          inc bx
  1543 00000990 83C303                      add bx, 3
  1544 00000993 EBC5                        jmp .pb_try_entry
  1545                                  
  1546                                  .pb_found:
  1547 00000995 59                          pop cx
  1548 00000996 59                          pop cx
  1549 00000997 43                          inc bx
  1550 00000998 8A07                        mov al, [bx]
  1551 0000099A A2[C518]                    mov [bg_color], al
  1552 0000099D 8A4701                      mov al, [bx+1]
  1553 000009A0 A2[C618]                    mov [bg_color+1], al
  1554 000009A3 8A4702                      mov al, [bx+2]
  1555 000009A6 A2[C718]                    mov [bg_color+2], al
  1556 000009A9 C606[C418]01                mov byte [bg_specified], 1
  1557 000009AE EB0B                        jmp .pb_done
  1558                                  
  1559                                  .pb_not_found:
  1560 000009B0 BA[6317]                    mov dx, msg_bad_bg
  1561 000009B3 E87904                      call print_string
  1562 000009B6 C606[BF18]01                mov byte [parse_error], 1
  1563                                  
  1564                                  .pb_done:
  1565 000009BB 5B                          pop bx
  1566 000009BC 59                          pop cx
  1567 000009BD 5F                          pop di
  1568 000009BE 5E                          pop si
  1569 000009BF C3                          ret
  1570                                  
  1571                                  ; ============================================================================
  1572                                  ; parse_fg_colors — Scan for /c:name1,name2,name3
  1573                                  ; ============================================================================
  1574                                  parse_fg_colors:
  1575 000009C0 56                          push si
  1576 000009C1 57                          push di
  1577 000009C2 51                          push cx
  1578 000009C3 53                          push bx
  1579                                  
  1580 000009C4 C606[C818]00                mov byte [fg_specified], 0
  1581 000009C9 30ED                        xor ch, ch
  1582 000009CB 8A0E8000                    mov cl, [0x80]
  1583 000009CF 09C9                        or cx, cx
  1584 000009D1 7461                        jz .pf_done
  1585 000009D3 BE8100                      mov si, 0x81
  1586                                  
  1587                                  .pf_scan:
  1588 000009D6 83F900                      cmp cx, 0
  1589 000009D9 7459                        je .pf_done
  1590 000009DB AC                          lodsb
  1591 000009DC 49                          dec cx
  1592 000009DD 3C2F                        cmp al, '/'
  1593 000009DF 7406                        je .pf_check_c
  1594 000009E1 3C2D                        cmp al, '-'
  1595 000009E3 7402                        je .pf_check_c
  1596 000009E5 EBEF                        jmp .pf_scan
  1597                                  
  1598                                  .pf_check_c:
  1599 000009E7 83F902                      cmp cx, 2
  1600 000009EA 7248                        jb .pf_done
  1601 000009EC AC                          lodsb
  1602 000009ED 49                          dec cx
  1603 000009EE 0C20                        or al, 0x20
  1604 000009F0 3C63                        cmp al, 'c'
  1605 000009F2 75E2                        jne .pf_scan
  1606 000009F4 AC                          lodsb
  1607 000009F5 49                          dec cx
  1608 000009F6 3C3A                        cmp al, ':'
  1609 000009F8 75DC                        jne .pf_scan
  1610                                  
  1611 000009FA BF[CA18]                    mov di, fg_colors
  1612 000009FD C606[C918]00                mov byte [fg_count], 0
  1613                                  
  1614                                  .pf_next_color:
  1615 00000A02 E83400                      call .pf_lookup_color
  1616 00000A05 7222                        jc .pf_error
  1617 00000A07 83C703                      add di, 3
  1618 00000A0A FE06[C918]                  inc byte [fg_count]
  1619 00000A0E 803E[C918]03                cmp byte [fg_count], 3
  1620 00000A13 740D                        je .pf_all_found
  1621 00000A15 83F900                      cmp cx, 0
  1622 00000A18 740F                        je .pf_error
  1623 00000A1A AC                          lodsb
  1624 00000A1B 49                          dec cx
  1625 00000A1C 3C2C                        cmp al, ','
  1626 00000A1E 7509                        jne .pf_error
  1627 00000A20 EBE0                        jmp .pf_next_color
  1628                                  
  1629                                  .pf_all_found:
  1630 00000A22 C606[C818]01                mov byte [fg_specified], 1
  1631 00000A27 EB0B                        jmp .pf_done
  1632                                  
  1633                                  .pf_error:
  1634 00000A29 BA[9E17]                    mov dx, msg_bad_fg
  1635 00000A2C E80004                      call print_string
  1636 00000A2F C606[BF18]01                mov byte [parse_error], 1
  1637                                  
  1638                                  .pf_done:
  1639 00000A34 5B                          pop bx
  1640 00000A35 59                          pop cx
  1641 00000A36 5F                          pop di
  1642 00000A37 5E                          pop si
  1643 00000A38 C3                          ret
  1644                                  
  1645                                  ; --- Internal: look up one color name at SI, write RGB to [DI] ---
  1646                                  .pf_lookup_color:
  1647 00000A39 BB[1018]                    mov bx, bg_color_names
  1648                                  
  1649                                  .pf_try_entry:
  1650 00000A3C 803F00                      cmp byte [bx], 0
  1651 00000A3F 744F                        je .pf_not_found
  1652 00000A41 56                          push si
  1653 00000A42 51                          push cx
  1654                                  
  1655                                  .pf_match_char:
  1656 00000A43 803F00                      cmp byte [bx], 0
  1657 00000A46 7410                        je .pf_check_delim
  1658 00000A48 83F900                      cmp cx, 0
  1659 00000A4B 741E                        je .pf_no_match_pop
  1660 00000A4D AC                          lodsb
  1661 00000A4E 49                          dec cx
  1662 00000A4F 0C20                        or al, 0x20
  1663 00000A51 3A07                        cmp al, [bx]
  1664 00000A53 7516                        jne .pf_no_match_pop
  1665 00000A55 43                          inc bx
  1666 00000A56 EBEB                        jmp .pf_match_char
  1667                                  
  1668                                  .pf_check_delim:
  1669 00000A58 83F900                      cmp cx, 0
  1670 00000A5B 741E                        je .pf_color_found
  1671 00000A5D 8A04                        mov al, [si]
  1672 00000A5F 3C2C                        cmp al, ','
  1673 00000A61 7418                        je .pf_color_found
  1674 00000A63 3C20                        cmp al, ' '
  1675 00000A65 7414                        je .pf_color_found
  1676 00000A67 3C0D                        cmp al, 0x0D
  1677 00000A69 7410                        je .pf_color_found
  1678                                  
  1679                                  .pf_no_match_pop:
  1680 00000A6B 59                          pop cx
  1681 00000A6C 5E                          pop si
  1682                                  .pf_skip_entry:
  1683 00000A6D 803F00                      cmp byte [bx], 0
  1684 00000A70 7403                        je .pf_skip_entry_rgb
  1685 00000A72 43                          inc bx
  1686 00000A73 EBF8                        jmp .pf_skip_entry
  1687                                  .pf_skip_entry_rgb:
  1688 00000A75 43                          inc bx
  1689 00000A76 83C303                      add bx, 3
  1690 00000A79 EBC1                        jmp .pf_try_entry
  1691                                  
  1692                                  .pf_color_found:
  1693 00000A7B 59                          pop cx
  1694 00000A7C 59                          pop cx
  1695 00000A7D 43                          inc bx
  1696 00000A7E 8A07                        mov al, [bx]
  1697 00000A80 8805                        mov [di], al
  1698 00000A82 8A4701                      mov al, [bx+1]
  1699 00000A85 884501                      mov [di+1], al
  1700 00000A88 8A4702                      mov al, [bx+2]
  1701 00000A8B 884502                      mov [di+2], al
  1702 00000A8E F8                          clc
  1703 00000A8F C3                          ret
  1704                                  
  1705                                  .pf_not_found:
  1706 00000A90 F9                          stc
  1707 00000A91 C3                          ret
  1708                                  
  1709                                  ; ============================================================================
  1710                                  ; apply_bg_override — Override config_buffer[0..2] if /b:color was given
  1711                                  ; ============================================================================
  1712                                  apply_bg_override:
  1713 00000A92 803E[C418]00                cmp byte [bg_specified], 0
  1714 00000A97 7412                        je .abg_done
  1715 00000A99 A0[C518]                    mov al, [bg_color]
  1716 00000A9C A2[5719]                    mov [config_buffer], al
  1717 00000A9F A0[C618]                    mov al, [bg_color+1]
  1718 00000AA2 A2[5819]                    mov [config_buffer+1], al
  1719 00000AA5 A0[C718]                    mov al, [bg_color+2]
  1720 00000AA8 A2[5919]                    mov [config_buffer+2], al
  1721                                  .abg_done:
  1722 00000AAB C3                          ret
  1723                                  
  1724                                  ; ============================================================================
  1725                                  ; apply_fg_override — Override config_buffer[3..11] if /c:name,name,name
  1726                                  ; ============================================================================
  1727                                  apply_fg_override:
  1728 00000AAC 803E[C818]00                cmp byte [fg_specified], 0
  1729 00000AB1 740C                        je .afg_done
  1730 00000AB3 BE[CA18]                    mov si, fg_colors
  1731 00000AB6 BF[5A19]                    mov di, config_buffer + 3
  1732 00000AB9 B90900                      mov cx, 9
  1733 00000ABC FC                          cld
  1734 00000ABD F3A4                        rep movsb
  1735                                  .afg_done:
  1736 00000ABF C3                          ret
  1737                                  
  1738                                  ; ============================================================================
  1739                                  ; apply_adjustments — Apply /V, /P, /D from command line to config_buffer
  1740                                  ; ============================================================================
  1741                                  apply_adjustments:
  1742 00000AC0 50                          push ax
  1743                                  
  1744                                      ; Vivid
  1745 00000AC1 803E[C118]00                cmp byte [vivid_adj_cmd], 0
  1746 00000AC6 740F                        je .adj_check_pop
  1747 00000AC8 803E[C118]01                cmp byte [vivid_adj_cmd], 1
  1748 00000ACD 7405                        je .adj_vivid_boost
  1749 00000ACF E89B00                      call inst_saturation_mute
  1750 00000AD2 EB03                        jmp .adj_check_pop
  1751                                  .adj_vivid_boost:
  1752 00000AD4 E85700                      call inst_saturation_boost
  1753                                  
  1754                                  .adj_check_pop:
  1755                                      ; Pop
  1756 00000AD7 803E[C218]00                cmp byte [pop_flag_cmd], 0
  1757 00000ADC 7406                        je .adj_check_bright
  1758 00000ADE E84D00                      call inst_saturation_boost
  1759 00000AE1 E8B800                      call inst_contrast_boost
  1760                                  
  1761                                  .adj_check_bright:
  1762                                      ; Brightness
  1763 00000AE4 803E[C018]00                cmp byte [brightness_adj_cmd], 0
  1764 00000AE9 740F                        je .adj_done
  1765 00000AEB 803E[C018]01                cmp byte [brightness_adj_cmd], 1
  1766 00000AF0 7405                        je .adj_brighten
  1767 00000AF2 E82100                      call inst_dim
  1768 00000AF5 EB03                        jmp .adj_done
  1769                                  .adj_brighten:
  1770 00000AF7 E80200                      call inst_brighten
  1771                                  
  1772                                  .adj_done:
  1773 00000AFA 58                          pop ax
  1774 00000AFB C3                          ret
  1775                                  
  1776                                  ; --- Installer adjustment routines (work on config_buffer, not palette_rgb) ---
  1777                                  
  1778                                  inst_brighten:
  1779 00000AFC 51                          push cx
  1780 00000AFD 56                          push si
  1781 00000AFE BE[5A19]                    mov si, config_buffer + 3
  1782 00000B01 B90900                      mov cx, 9
  1783                                  .loop:
  1784 00000B04 8A04                        mov al, [si]
  1785 00000B06 0408                        add al, 8
  1786 00000B08 3C3F                        cmp al, 63
  1787 00000B0A 7602                        jbe .ok
  1788 00000B0C B03F                        mov al, 63
  1789                                  .ok:
  1790 00000B0E 8804                        mov [si], al
  1791 00000B10 46                          inc si
  1792 00000B11 E2F1                        loop .loop
  1793 00000B13 5E                          pop si
  1794 00000B14 59                          pop cx
  1795 00000B15 C3                          ret
  1796                                  
  1797                                  inst_dim:
  1798 00000B16 51                          push cx
  1799 00000B17 56                          push si
  1800 00000B18 BE[5A19]                    mov si, config_buffer + 3
  1801 00000B1B B90900                      mov cx, 9
  1802                                  .loop:
  1803 00000B1E 8A04                        mov al, [si]
  1804 00000B20 2C08                        sub al, 8
  1805 00000B22 7302                        jnc .ok
  1806 00000B24 30C0                        xor al, al
  1807                                  .ok:
  1808 00000B26 8804                        mov [si], al
  1809 00000B28 46                          inc si
  1810 00000B29 E2F3                        loop .loop
  1811 00000B2B 5E                          pop si
  1812 00000B2C 59                          pop cx
  1813 00000B2D C3                          ret
  1814                                  
  1815                                  inst_saturation_boost:
  1816 00000B2E 53                          push bx
  1817 00000B2F 51                          push cx
  1818 00000B30 56                          push si
  1819 00000B31 BE[5A19]                    mov si, config_buffer + 3
  1820 00000B34 B90300                      mov cx, 3
  1821                                  .color:
  1822 00000B37 31C0                        xor ax, ax
  1823 00000B39 8A04                        mov al, [si]
  1824 00000B3B 024401                      add al, [si+1]
  1825 00000B3E 024402                      add al, [si+2]
  1826 00000B41 B303                        mov bl, 3
  1827 00000B43 F6F3                        div bl
  1828 00000B45 88C3                        mov bl, al
  1829 00000B47 51                          push cx
  1830 00000B48 B90300                      mov cx, 3
  1831                                  .ch:
  1832 00000B4B 8A04                        mov al, [si]
  1833 00000B4D 28D8                        sub al, bl
  1834 00000B4F D0F8                        sar al, 1
  1835 00000B51 0204                        add al, [si]
  1836 00000B53 84C0                        test al, al
  1837 00000B55 7904                        jns .not_neg
  1838 00000B57 30C0                        xor al, al
  1839 00000B59 EB06                        jmp .store
  1840                                  .not_neg:
  1841 00000B5B 3C3F                        cmp al, 63
  1842 00000B5D 7602                        jbe .store
  1843 00000B5F B03F                        mov al, 63
  1844                                  .store:
  1845 00000B61 8804                        mov [si], al
  1846 00000B63 46                          inc si
  1847 00000B64 E2E5                        loop .ch
  1848 00000B66 59                          pop cx
  1849 00000B67 E2CE                        loop .color
  1850 00000B69 5E                          pop si
  1851 00000B6A 59                          pop cx
  1852 00000B6B 5B                          pop bx
  1853 00000B6C C3                          ret
  1854                                  
  1855                                  inst_saturation_mute:
  1856 00000B6D 53                          push bx
  1857 00000B6E 51                          push cx
  1858 00000B6F 56                          push si
  1859 00000B70 BE[5A19]                    mov si, config_buffer + 3
  1860 00000B73 B90300                      mov cx, 3
  1861                                  .color:
  1862 00000B76 31C0                        xor ax, ax
  1863 00000B78 8A04                        mov al, [si]
  1864 00000B7A 024401                      add al, [si+1]
  1865 00000B7D 024402                      add al, [si+2]
  1866 00000B80 B303                        mov bl, 3
  1867 00000B82 F6F3                        div bl
  1868 00000B84 88C3                        mov bl, al
  1869 00000B86 51                          push cx
  1870 00000B87 B90300                      mov cx, 3
  1871                                  .ch:
  1872 00000B8A 8A04                        mov al, [si]
  1873 00000B8C 00D8                        add al, bl
  1874 00000B8E D0E8                        shr al, 1
  1875 00000B90 8804                        mov [si], al
  1876 00000B92 46                          inc si
  1877 00000B93 E2F5                        loop .ch
  1878 00000B95 59                          pop cx
  1879 00000B96 E2DE                        loop .color
  1880 00000B98 5E                          pop si
  1881 00000B99 59                          pop cx
  1882 00000B9A 5B                          pop bx
  1883 00000B9B C3                          ret
  1884                                  
  1885                                  inst_contrast_boost:
  1886 00000B9C 51                          push cx
  1887 00000B9D 56                          push si
  1888 00000B9E BE[5A19]                    mov si, config_buffer + 3
  1889 00000BA1 B90900                      mov cx, 9
  1890                                  .loop:
  1891 00000BA4 8A04                        mov al, [si]
  1892 00000BA6 2C1F                        sub al, 31
  1893 00000BA8 D0F8                        sar al, 1
  1894 00000BAA 0204                        add al, [si]
  1895 00000BAC 84C0                        test al, al
  1896 00000BAE 7904                        jns .not_neg
  1897 00000BB0 30C0                        xor al, al
  1898 00000BB2 EB06                        jmp .store
  1899                                  .not_neg:
  1900 00000BB4 3C3F                        cmp al, 63
  1901 00000BB6 7602                        jbe .store
  1902 00000BB8 B03F                        mov al, 63
  1903                                  .store:
  1904 00000BBA 8804                        mov [si], al
  1905 00000BBC 46                          inc si
  1906 00000BBD E2E5                        loop .loop
  1907 00000BBF 5E                          pop si
  1908 00000BC0 59                          pop cx
  1909 00000BC1 C3                          ret
  1910                                  
  1911                                  ; ============================================================================
  1912                                  ; load_config — Load palette from file into config_buffer
  1913                                  ; ============================================================================
  1914                                  load_config:
  1915 00000BC2 50                          push ax
  1916 00000BC3 53                          push bx
  1917 00000BC4 51                          push cx
  1918 00000BC5 52                          push dx
  1919                                  
  1920 00000BC6 E84601                      call get_filename
  1921 00000BC9 7207                        jc .use_default
  1922 00000BCB C606[BE18]01                mov byte [explicit_file], 1
  1923 00000BD0 EB08                        jmp .open_file
  1924                                  
  1925                                  .use_default:
  1926 00000BD2 C606[BE18]00                mov byte [explicit_file], 0
  1927 00000BD7 BA[0318]                    mov dx, default_filename
  1928                                  
  1929                                  .open_file:
  1930 00000BDA B8003D                      mov ax, 0x3D00
  1931 00000BDD CD21                        int 0x21
  1932 00000BDF 723C                        jc .file_error
  1933                                  
  1934 00000BE1 A3[D318]                    mov [file_handle], ax
  1935 00000BE4 89C3                        mov bx, ax
  1936 00000BE6 B43F                        mov ah, 0x3F
  1937 00000BE8 B90002                      mov cx, TEXT_BUF_SIZE
  1938 00000BEB BA[6319]                    mov dx, text_buffer
  1939 00000BEE CD21                        int 0x21
  1940 00000BF0 7223                        jc .close_error
  1941 00000BF2 A3[D518]                    mov [bytes_read], ax
  1942 00000BF5 B43E                        mov ah, 0x3E
  1943 00000BF7 8B1E[D318]                  mov bx, [file_handle]
  1944 00000BFB CD21                        int 0x21
  1945 00000BFD A1[D518]                    mov ax, [bytes_read]
  1946 00000C00 09C0                        or ax, ax
  1947 00000C02 7411                        jz .close_error
  1948 00000C04 E82900                      call parse_text_palette
  1949 00000C07 7203                        jc .parse_error
  1950 00000C09 F8                          clc
  1951 00000C0A EB1F                        jmp .lc_done
  1952                                  
  1953                                  .parse_error:
  1954 00000C0C BA[0F17]                    mov dx, msg_parse_error
  1955 00000C0F E81D02                      call print_string
  1956 00000C12 F9                          stc
  1957 00000C13 EB16                        jmp .lc_done
  1958                                  
  1959                                  .close_error:
  1960 00000C15 B43E                        mov ah, 0x3E
  1961 00000C17 8B1E[D318]                  mov bx, [file_handle]
  1962 00000C1B CD21                        int 0x21
  1963                                  
  1964                                  .file_error:
  1965 00000C1D 803E[BE18]00                cmp byte [explicit_file], 0
  1966 00000C22 7406                        je .silent_fail
  1967 00000C24 BA[EA16]                    mov dx, msg_file_error
  1968 00000C27 E80502                      call print_string
  1969                                  .silent_fail:
  1970 00000C2A F9                          stc
  1971                                  
  1972                                  .lc_done:
  1973 00000C2B 5A                          pop dx
  1974 00000C2C 59                          pop cx
  1975 00000C2D 5B                          pop bx
  1976 00000C2E 58                          pop ax
  1977 00000C2F C3                          ret
  1978                                  
  1979                                  ; ============================================================================
  1980                                  ; parse_text_palette — Parse RGB text into config_buffer
  1981                                  ; ============================================================================
  1982                                  parse_text_palette:
  1983 00000C30 50                          push ax
  1984 00000C31 53                          push bx
  1985 00000C32 51                          push cx
  1986 00000C33 52                          push dx
  1987 00000C34 56                          push si
  1988 00000C35 57                          push di
  1989                                  
  1990 00000C36 BE[6319]                    mov si, text_buffer
  1991 00000C39 BF[5719]                    mov di, config_buffer
  1992 00000C3C 8B0E[D518]                  mov cx, [bytes_read]
  1993 00000C40 31DB                        xor bx, bx
  1994                                  
  1995                                  .next_line:
  1996 00000C42 80FB04                      cmp bl, 4
  1997 00000C45 735B                        jae .parse_done
  1998 00000C47 09C9                        or cx, cx
  1999 00000C49 7452                        jz .check_count
  2000                                  
  2001                                  .skip_ws:
  2002 00000C4B 09C9                        or cx, cx
  2003 00000C4D 744E                        jz .check_count
  2004 00000C4F AC                          lodsb
  2005 00000C50 49                          dec cx
  2006 00000C51 3C20                        cmp al, ' '
  2007 00000C53 74F6                        je .skip_ws
  2008 00000C55 3C09                        cmp al, 9
  2009 00000C57 74F2                        je .skip_ws
  2010 00000C59 3C0D                        cmp al, 13
  2011 00000C5B 74EE                        je .skip_ws
  2012 00000C5D 3C0A                        cmp al, 10
  2013 00000C5F 74E1                        je .next_line
  2014 00000C61 3C3B                        cmp al, ';'
  2015 00000C63 742C                        je .skip_to_eol
  2016 00000C65 3C23                        cmp al, '#'
  2017 00000C67 7428                        je .skip_to_eol
  2018                                  
  2019 00000C69 4E                          dec si
  2020 00000C6A 41                          inc cx
  2021 00000C6B E83F00                      call parse_number
  2022 00000C6E 7235                        jc .parse_fail
  2023 00000C70 8805                        mov [di], al
  2024 00000C72 E87100                      call skip_separator
  2025 00000C75 722E                        jc .parse_fail
  2026 00000C77 E83300                      call parse_number
  2027 00000C7A 7229                        jc .parse_fail
  2028 00000C7C 884501                      mov [di+1], al
  2029 00000C7F E86400                      call skip_separator
  2030 00000C82 7221                        jc .parse_fail
  2031 00000C84 E82600                      call parse_number
  2032 00000C87 721C                        jc .parse_fail
  2033 00000C89 884502                      mov [di+2], al
  2034 00000C8C 83C703                      add di, 3
  2035 00000C8F FEC3                        inc bl
  2036                                  
  2037                                  .skip_to_eol:
  2038 00000C91 09C9                        or cx, cx
  2039 00000C93 7408                        jz .check_count
  2040 00000C95 AC                          lodsb
  2041 00000C96 49                          dec cx
  2042 00000C97 3C0A                        cmp al, 10
  2043 00000C99 75F6                        jne .skip_to_eol
  2044 00000C9B EBA5                        jmp .next_line
  2045                                  
  2046                                  .check_count:
  2047 00000C9D 80FB04                      cmp bl, 4
  2048 00000CA0 7203                        jb .parse_fail
  2049                                  
  2050                                  .parse_done:
  2051 00000CA2 F8                          clc
  2052 00000CA3 EB01                        jmp .parse_exit
  2053                                  
  2054                                  .parse_fail:
  2055 00000CA5 F9                          stc
  2056                                  
  2057                                  .parse_exit:
  2058 00000CA6 5F                          pop di
  2059 00000CA7 5E                          pop si
  2060 00000CA8 5A                          pop dx
  2061 00000CA9 59                          pop cx
  2062 00000CAA 5B                          pop bx
  2063 00000CAB 58                          pop ax
  2064 00000CAC C3                          ret
  2065                                  
  2066                                  ; ============================================================================
  2067                                  ; parse_number — Parse decimal 0-63 from SI/CX
  2068                                  ; ============================================================================
  2069                                  parse_number:
  2070 00000CAD 53                          push bx
  2071 00000CAE 52                          push dx
  2072 00000CAF 31C0                        xor ax, ax
  2073 00000CB1 31DB                        xor bx, bx
  2074                                  .digit_loop:
  2075 00000CB3 09C9                        or cx, cx
  2076 00000CB5 741F                        jz .check_digits
  2077 00000CB7 8A14                        mov dl, [si]
  2078 00000CB9 80FA30                      cmp dl, '0'
  2079 00000CBC 7218                        jb .check_digits
  2080 00000CBE 80FA39                      cmp dl, '9'
  2081 00000CC1 7713                        ja .check_digits
  2082 00000CC3 52                          push dx
  2083 00000CC4 BA0A00                      mov dx, 10
  2084 00000CC7 F7E2                        mul dx
  2085 00000CC9 5A                          pop dx
  2086 00000CCA 80EA30                      sub dl, '0'
  2087 00000CCD 30F6                        xor dh, dh
  2088 00000CCF 01D0                        add ax, dx
  2089 00000CD1 46                          inc si
  2090 00000CD2 49                          dec cx
  2091 00000CD3 43                          inc bx
  2092 00000CD4 EBDD                        jmp .digit_loop
  2093                                  .check_digits:
  2094 00000CD6 09DB                        or bx, bx
  2095 00000CD8 7408                        jz .num_error
  2096 00000CDA 83F840                      cmp ax, 64
  2097 00000CDD 7303                        jae .num_error
  2098 00000CDF F8                          clc
  2099 00000CE0 EB01                        jmp .num_done
  2100                                  .num_error:
  2101 00000CE2 F9                          stc
  2102                                  .num_done:
  2103 00000CE3 5A                          pop dx
  2104 00000CE4 5B                          pop bx
  2105 00000CE5 C3                          ret
  2106                                  
  2107                                  ; ============================================================================
  2108                                  ; skip_separator
  2109                                  ; ============================================================================
  2110                                  skip_separator:
  2111 00000CE6 50                          push ax
  2112 00000CE7 09C9                        or cx, cx
  2113 00000CE9 7421                        jz .sep_error
  2114                                  .sep_loop:
  2115 00000CEB AC                          lodsb
  2116 00000CEC 49                          dec cx
  2117 00000CED 3C2C                        cmp al, ','
  2118 00000CEF 7415                        je .sep_more
  2119 00000CF1 3C20                        cmp al, ' '
  2120 00000CF3 7411                        je .sep_more
  2121 00000CF5 3C09                        cmp al, 9
  2122 00000CF7 740D                        je .sep_more
  2123 00000CF9 3C0A                        cmp al, 10
  2124 00000CFB 740F                        je .sep_error
  2125 00000CFD 3C0D                        cmp al, 13
  2126 00000CFF 740B                        je .sep_error
  2127 00000D01 4E                          dec si
  2128 00000D02 41                          inc cx
  2129 00000D03 F8                          clc
  2130 00000D04 EB07                        jmp .sep_done
  2131                                  .sep_more:
  2132 00000D06 09C9                        or cx, cx
  2133 00000D08 7402                        jz .sep_error
  2134 00000D0A EBDF                        jmp .sep_loop
  2135                                  .sep_error:
  2136 00000D0C F9                          stc
  2137                                  .sep_done:
  2138 00000D0D 58                          pop ax
  2139 00000D0E C3                          ret
  2140                                  
  2141                                  ; ============================================================================
  2142                                  ; get_filename — Extract filename from command line (skip switches)
  2143                                  ; ============================================================================
  2144                                  get_filename:
  2145 00000D0F 56                          push si
  2146 00000D10 57                          push di
  2147 00000D11 BE8100                      mov si, 0x81
  2148 00000D14 BF[D718]                    mov di, filename_buffer
  2149                                  
  2150                                  .skip_spaces:
  2151 00000D17 AC                          lodsb
  2152 00000D18 3C20                        cmp al, ' '
  2153 00000D1A 74FB                        je .skip_spaces
  2154 00000D1C 3C0D                        cmp al, 0x0D
  2155 00000D1E 7436                        je .no_filename
  2156 00000D20 3C0A                        cmp al, 0x0A
  2157 00000D22 7432                        je .no_filename
  2158 00000D24 3C2F                        cmp al, '/'
  2159 00000D26 7406                        je .skip_token
  2160 00000D28 3C2D                        cmp al, '-'
  2161 00000D2A 7402                        je .skip_token
  2162 00000D2C EB0F                        jmp .copy_loop
  2163                                  
  2164                                  .skip_token:
  2165 00000D2E AC                          lodsb
  2166 00000D2F 3C20                        cmp al, ' '
  2167 00000D31 74E4                        je .skip_spaces
  2168 00000D33 3C0D                        cmp al, 0x0D
  2169 00000D35 741F                        je .no_filename
  2170 00000D37 3C0A                        cmp al, 0x0A
  2171 00000D39 741B                        je .no_filename
  2172 00000D3B EBF1                        jmp .skip_token
  2173                                  
  2174                                  .copy_loop:
  2175 00000D3D 3C20                        cmp al, ' '
  2176 00000D3F 740C                        je .end_filename
  2177 00000D41 3C0D                        cmp al, 0x0D
  2178 00000D43 7408                        je .end_filename
  2179 00000D45 3C0A                        cmp al, 0x0A
  2180 00000D47 7404                        je .end_filename
  2181 00000D49 AA                          stosb
  2182 00000D4A AC                          lodsb
  2183 00000D4B EBF0                        jmp .copy_loop
  2184                                  
  2185                                  .end_filename:
  2186 00000D4D 30C0                        xor al, al
  2187 00000D4F AA                          stosb
  2188 00000D50 BA[D718]                    mov dx, filename_buffer
  2189 00000D53 F8                          clc
  2190 00000D54 EB01                        jmp .gf_done
  2191                                  
  2192                                  .no_filename:
  2193 00000D56 F9                          stc
  2194                                  
  2195                                  .gf_done:
  2196 00000D57 5F                          pop di
  2197 00000D58 5E                          pop si
  2198 00000D59 C3                          ret
  2199                                  
  2200                                  ; ============================================================================
  2201                                  ; validate_palette — Check all 12 bytes in config_buffer are 0-63
  2202                                  ; ============================================================================
  2203                                  validate_palette:
  2204 00000D5A 51                          push cx
  2205 00000D5B 56                          push si
  2206 00000D5C BE[5719]                    mov si, config_buffer
  2207 00000D5F B90C00                      mov cx, CONFIG_SIZE
  2208                                  .check_loop:
  2209 00000D62 AC                          lodsb
  2210 00000D63 3C40                        cmp al, 64
  2211 00000D65 7305                        jae .invalid
  2212 00000D67 E2F9                        loop .check_loop
  2213 00000D69 F8                          clc
  2214 00000D6A EB07                        jmp .vp_done
  2215                                  .invalid:
  2216 00000D6C BA[3517]                    mov dx, msg_invalid
  2217 00000D6F E8BD00                      call print_string
  2218 00000D72 F9                          stc
  2219                                  .vp_done:
  2220 00000D73 5E                          pop si
  2221 00000D74 59                          pop cx
  2222 00000D75 C3                          ret
  2223                                  
  2224                                  ; ============================================================================
  2225                                  ; load_fallback_to_config — Copy fallback CGA palette to config_buffer
  2226                                  ; ============================================================================
  2227                                  load_fallback_to_config:
  2228 00000D76 56                          push si
  2229 00000D77 57                          push di
  2230 00000D78 51                          push cx
  2231 00000D79 BE[6E00]                    mov si, res_preset_fallback
  2232 00000D7C BF[5719]                    mov di, config_buffer
  2233 00000D7F B90C00                      mov cx, CONFIG_SIZE
  2234 00000D82 FC                          cld
  2235 00000D83 F3A4                        rep movsb
  2236 00000D85 59                          pop cx
  2237 00000D86 5F                          pop di
  2238 00000D87 5E                          pop si
  2239 00000D88 C3                          ret
  2240                                  
  2241                                  ; ============================================================================
  2242                                  ; print_colors — Print loaded palette with color blocks
  2243                                  ; ============================================================================
  2244                                  print_colors:
  2245 00000D89 50                          push ax
  2246 00000D8A 53                          push bx
  2247 00000D8B 51                          push cx
  2248 00000D8C 56                          push si
  2249                                  
  2250 00000D8D BA[9A16]                    mov dx, msg_colors
  2251 00000D90 E89C00                      call print_string
  2252 00000D93 BE[5719]                    mov si, config_buffer
  2253 00000D96 B100                        mov cl, 0
  2254                                  
  2255                                  .color_loop:
  2256 00000D98 BA[AC16]                    mov dx, msg_color_prefix
  2257 00000D9B E89100                      call print_string
  2258 00000D9E 88C8                        mov al, cl
  2259 00000DA0 0430                        add al, '0'
  2260 00000DA2 E87F00                      call print_char
  2261 00000DA5 BA[B516]                    mov dx, msg_color_sep
  2262 00000DA8 E88400                      call print_string
  2263                                  
  2264 00000DAB AC                          lodsb
  2265 00000DAC E85800                      call print_number
  2266 00000DAF B02C                        mov al, ','
  2267 00000DB1 E87000                      call print_char
  2268 00000DB4 AC                          lodsb
  2269 00000DB5 E84F00                      call print_number
  2270 00000DB8 B02C                        mov al, ','
  2271 00000DBA E86700                      call print_char
  2272 00000DBD AC                          lodsb
  2273 00000DBE E84600                      call print_number
  2274                                  
  2275 00000DC1 B020                        mov al, ' '
  2276 00000DC3 E85E00                      call print_char
  2277 00000DC6 88C8                        mov al, cl
  2278 00000DC8 E81200                      call print_color_block
  2279                                  
  2280 00000DCB BA[B816]                    mov dx, msg_crlf
  2281 00000DCE E85E00                      call print_string
  2282 00000DD1 FEC1                        inc cl
  2283 00000DD3 80F904                      cmp cl, 4
  2284 00000DD6 72C0                        jb .color_loop
  2285                                  
  2286 00000DD8 5E                          pop si
  2287 00000DD9 59                          pop cx
  2288 00000DDA 5B                          pop bx
  2289 00000DDB 58                          pop ax
  2290 00000DDC C3                          ret
  2291                                  
  2292                                  ; ============================================================================
  2293                                  ; print_color_block — 4 solid blocks in specified color attribute
  2294                                  ; ============================================================================
  2295                                  print_color_block:
  2296 00000DDD 50                          push ax
  2297 00000DDE 53                          push bx
  2298 00000DDF 51                          push cx
  2299 00000DE0 88C3                        mov bl, al
  2300 00000DE2 08C0                        or al, al
  2301 00000DE4 7405                        jz .have_attr
  2302 00000DE6 D0E3                        shl bl, 1
  2303 00000DE8 80C309                      add bl, 9
  2304                                  .have_attr:
  2305 00000DEB B700                        mov bh, 0
  2306 00000DED B0DB                        mov al, 219
  2307 00000DEF B90400                      mov cx, 4
  2308 00000DF2 B409                        mov ah, 0x09
  2309 00000DF4 CD10                        int 0x10
  2310 00000DF6 B403                        mov ah, 0x03
  2311 00000DF8 B700                        mov bh, 0
  2312 00000DFA CD10                        int 0x10
  2313 00000DFC 80C204                      add dl, 4
  2314 00000DFF B402                        mov ah, 0x02
  2315 00000E01 CD10                        int 0x10
  2316 00000E03 59                          pop cx
  2317 00000E04 5B                          pop bx
  2318 00000E05 58                          pop ax
  2319 00000E06 C3                          ret
  2320                                  
  2321                                  ; ============================================================================
  2322                                  ; print_number — Print AL as decimal (0-99)
  2323                                  ; ============================================================================
  2324                                  print_number:
  2325 00000E07 50                          push ax
  2326 00000E08 53                          push bx
  2327 00000E09 52                          push dx
  2328 00000E0A 30E4                        xor ah, ah
  2329 00000E0C B30A                        mov bl, 10
  2330 00000E0E F6F3                        div bl
  2331 00000E10 08C0                        or al, al
  2332 00000E12 7405                        jz .ones
  2333 00000E14 0430                        add al, '0'
  2334 00000E16 E80B00                      call print_char
  2335                                  .ones:
  2336 00000E19 88E0                        mov al, ah
  2337 00000E1B 0430                        add al, '0'
  2338 00000E1D E80400                      call print_char
  2339 00000E20 5A                          pop dx
  2340 00000E21 5B                          pop bx
  2341 00000E22 58                          pop ax
  2342 00000E23 C3                          ret
  2343                                  
  2344                                  ; ============================================================================
  2345                                  ; print_char — Print character in AL via DOS
  2346                                  ; ============================================================================
  2347                                  print_char:
  2348 00000E24 50                          push ax
  2349 00000E25 52                          push dx
  2350 00000E26 88C2                        mov dl, al
  2351 00000E28 B402                        mov ah, 0x02
  2352 00000E2A CD21                        int 0x21
  2353 00000E2C 5A                          pop dx
  2354 00000E2D 58                          pop ax
  2355 00000E2E C3                          ret
  2356                                  
  2357                                  ; ============================================================================
  2358                                  ; print_string — Print $-terminated string at DX via DOS
  2359                                  ; ============================================================================
  2360                                  print_string:
  2361 00000E2F 50                          push ax
  2362 00000E30 B409                        mov ah, 0x09
  2363 00000E32 CD21                        int 0x21
  2364 00000E34 58                          pop ax
  2365 00000E35 C3                          ret
  2366                                  
  2367                                  ; ============================================================================
  2368                                  ; Data Section (transient — discarded after TSR)
  2369                                  ; ============================================================================
  2370                                  
  2371                                  msg_banner:
  2372 00000E36 50616C537761705420-         db 'PalSwapT v3.0 - CGA Palette TSR with Live Hotkeys', 13, 10
  2372 00000E3F 76332E30202D204347-
  2372 00000E48 412050616C65747465-
  2372 00000E51 205453522077697468-
  2372 00000E5A 204C69766520486F74-
  2372 00000E63 6B6579730D0A       
  2373 00000E69 427920526574726F20-         db 'By Retro Erik - 2026 - Hooks INT 09h + INT 10h', 13, 10
  2373 00000E72 4572696B202D203230-
  2373 00000E7B 3236202D20486F6F6B-
  2373 00000E84 7320494E5420303968-
  2373 00000E8D 202B20494E54203130-
  2373 00000E96 680D0A             
  2374 00000E99 547970653A2050414C-         db 'Type: PALSWAPT /? for help', 13, 10, '$'
  2374 00000EA2 5357415054202F3F20-
  2374 00000EAB 666F722068656C700D-
  2374 00000EB4 0A24               
  2375                                  
  2376                                  msg_detected_ega:
  2377 00000EB6 416461707465723A20-         db 'Adapter: EGA detected. Using Attribute Controller.', 13, 10, '$'
  2377 00000EBF 454741206465746563-
  2377 00000EC8 7465642E205573696E-
  2377 00000ED1 672041747472696275-
  2377 00000EDA 746520436F6E74726F-
  2377 00000EE3 6C6C65722E0D0A24   
  2378                                  msg_detected_vga:
  2379 00000EEB 416461707465723A20-         db 'Adapter: VGA detected. Using DAC registers (full RGB).', 13, 10, '$'
  2379 00000EF4 564741206465746563-
  2379 00000EFD 7465642E205573696E-
  2379 00000F06 672044414320726567-
  2379 00000F0F 697374657273202866-
  2379 00000F18 756C6C20524742292E-
  2379 00000F21 0D0A24             
  2380                                  msg_no_adapter:
  2381 00000F24 4572726F723A204E6F-         db 'Error: No EGA or VGA adapter detected.', 13, 10, '$'
  2381 00000F2D 20454741206F722056-
  2381 00000F36 474120616461707465-
  2381 00000F3F 722064657465637465-
  2381 00000F48 642E0D0A24         
  2382                                  
  2383                                  msg_help:
  2384 00000F4D 0D0A                        db 13, 10
  2385 00000F4F 55736167653A205041-         db 'Usage: PALSWAPT [file.txt] [/1..5] [/c:c1,c2,c3] [/b:color]', 13, 10
  2385 00000F58 4C5357415054205B66-
  2385 00000F61 696C652E7478745D20-
  2385 00000F6A 5B2F312E2E355D205B-
  2385 00000F73 2F633A63312C63322C-
  2385 00000F7C 63335D205B2F623A63-
  2385 00000F85 6F6C6F725D0D0A     
  2386 00000F8C 202020202020202020-         db '                [/P] [/V:+|-] [/D:+|-] [/R] [/U] [/?]', 13, 10
  2386 00000F95 202020202020205B2F-
  2386 00000F9E 505D205B2F563A2B7C-
  2386 00000FA7 2D5D205B2F443A2B7C-
  2386 00000FB0 2D5D205B2F525D205B-
  2386 00000FB9 2F555D205B2F3F5D0D-
  2386 00000FC2 0A                 
  2387 00000FC3 0D0A                        db 13, 10
  2388 00000FC5 2020496E7374616C6C-         db '  Installs as TSR. Hooks INT 10h (survives game mode resets)', 13, 10
  2388 00000FCE 73206173205453522E-
  2388 00000FD7 20486F6F6B7320494E-
  2388 00000FE0 542031306820287375-
  2388 00000FE9 727669766573206761-
  2388 00000FF2 6D65206D6F64652072-
  2388 00000FFB 6573657473290D0A   
  2389 00001003 2020616E6420494E54-         db '  and INT 09h (live palette hotkeys via ScrollLock).', 13, 10
  2389 0000100C 2030396820286C6976-
  2389 00001015 652070616C65747465-
  2389 0000101E 20686F746B65797320-
  2389 00001027 766961205363726F6C-
  2389 00001030 6C4C6F636B292E0D0A 
  2390 00001039 0D0A                        db 13, 10
  2391 0000103B 202066696C652E7478-         db '  file.txt       Load custom palette (default: PALSWAPT.TXT)', 13, 10
  2391 00001044 74202020202020204C-
  2391 0000104D 6F616420637573746F-
  2391 00001056 6D2070616C65747465-
  2391 0000105F 202864656661756C74-
  2391 00001068 3A2050414C53574150-
  2391 00001071 542E545854290D0A   
  2392 00001079 20202F633A63312C63-         db '  /c:c1,c2,c3    Set colors 1-3 by name (see list below)', 13, 10
  2392 00001082 322C63332020202053-
  2392 0000108B 657420636F6C6F7273-
  2392 00001094 20312D33206279206E-
  2392 0000109D 616D65202873656520-
  2392 000010A6 6C6973742062656C6F-
  2392 000010AF 77290D0A           
  2393 000010B3 20202F623A636F6C6F-         db '  /b:color        Set background color by name', 13, 10
  2393 000010BC 722020202020202020-
  2393 000010C5 536574206261636B67-
  2393 000010CE 726F756E6420636F6C-
  2393 000010D7 6F72206279206E616D-
  2393 000010E0 650D0A             
  2394 000010E3 20202F502020202020-         db '  /P              Pop - boost saturation + contrast', 13, 10
  2394 000010EC 202020202020202020-
  2394 000010F5 506F70202D20626F6F-
  2394 000010FE 737420736174757261-
  2394 00001107 74696F6E202B20636F-
  2394 00001110 6E74726173740D0A   
  2395 00001118 20202F563A2B20202F-         db '  /V:+  /V:-      Increase / decrease saturation', 13, 10
  2395 00001121 563A2D202020202020-
  2395 0000112A 496E63726561736520-
  2395 00001133 2F2064656372656173-
  2395 0000113C 652073617475726174-
  2395 00001145 696F6E0D0A         
  2396 0000114A 20202F443A2B20202F-         db '  /D:+  /D:-      Brighten / dim colors', 13, 10
  2396 00001153 443A2D202020202020-
  2396 0000115C 427269676874656E20-
  2396 00001165 2F2064696D20636F6C-
  2396 0000116E 6F72730D0A         
  2397 00001173 20202F522020202020-         db '  /R              Install with default CGA palette', 13, 10
  2397 0000117C 202020202020202020-
  2397 00001185 496E7374616C6C2077-
  2397 0000118E 697468206465666175-
  2397 00001197 6C7420434741207061-
  2397 000011A0 6C657474650D0A     
  2398 000011A7 20202F552020202020-         db '  /U              Uninstall TSR from memory', 13, 10
  2398 000011B0 202020202020202020-
  2398 000011B9 556E696E7374616C6C-
  2398 000011C2 205453522066726F6D-
  2398 000011CB 206D656D6F72790D0A 
  2399 000011D4 20202F3F2020202020-         db '  /?              Show this help', 13, 10
  2399 000011DD 202020202020202020-
  2399 000011E6 53686F772074686973-
  2399 000011EF 2068656C700D0A     
  2400 000011F6 24                          db '$'
  2401                                  
  2402                                  msg_pause:
  2403 000011F7 0D0A2D2D2D20507265-         db 13, 10, '--- Press any key for more ---', '$'
  2403 00001200 737320616E79206B65-
  2403 00001209 7920666F72206D6F72-
  2403 00001212 65202D2D2D24       
  2404                                  
  2405                                  msg_help2:
  2406 00001218 0D0A0D0A                    db 13, 10, 13, 10
  2407 0000121C 4275696C742D696E20-         db 'Built-in presets:', 13, 10
  2407 00001225 707265736574733A0D-
  2407 0000122E 0A                 
  2408 0000122F 20202F312020417263-         db '  /1  Arcade Vibrant   /2  Sierra Natural   /3  C64-inspired', 13, 10
  2408 00001238 616465205669627261-
  2408 00001241 6E742020202F322020-
  2408 0000124A 536965727261204E61-
  2408 00001253 747572616C2020202F-
  2408 0000125C 3320204336342D696E-
  2408 00001265 7370697265640D0A   
  2409 0000126D 20202F342020434741-         db '  /4  CGA Red/Green    /5  CGA Red/Blue', 13, 10
  2409 00001276 205265642F47726565-
  2409 0000127F 6E202020202F352020-
  2409 00001288 434741205265642F42-
  2409 00001291 6C75650D0A         
  2410 00001296 0D0A                        db 13, 10
  2411 00001298 4C69766520686F746B-         db 'Live hotkeys (turn ScrollLock ON to activate):', 13, 10
  2411 000012A1 65797320287475726E-
  2411 000012AA 205363726F6C6C4C6F-
  2411 000012B3 636B204F4E20746F20-
  2411 000012BC 616374697661746529-
  2411 000012C5 3A0D0A             
  2412 000012C8 2020312E2E35202020-         db '  1..5       Switch preset instantly', 13, 10
  2412 000012D1 202020205377697463-
  2412 000012DA 682070726573657420-
  2412 000012E3 696E7374616E746C79-
  2412 000012EC 0D0A               
  2413 000012EE 202050202020202020-         db '  P          Toggle Pop (saturation + contrast)', 13, 10
  2413 000012F7 20202020546F67676C-
  2413 00001300 6520506F7020287361-
  2413 00001309 7475726174696F6E20-
  2413 00001312 2B20636F6E74726173-
  2413 0000131B 74290D0A           
  2414 0000131F 202052202020202020-         db '  R          Reset to default CGA palette', 13, 10
  2414 00001328 202020205265736574-
  2414 00001331 20746F206465666175-
  2414 0000133A 6C7420434741207061-
  2414 00001343 6C657474650D0A     
  2415 0000134A 202055702F446F776E-         db '  Up/Down    Brighten / Dim', 13, 10
  2415 00001353 202020204272696768-
  2415 0000135C 74656E202F2044696D-
  2415 00001365 0D0A               
  2416 00001367 20204C6566742F5269-         db '  Left/Right Less / More vivid (saturation)', 13, 10
  2416 00001370 676874204C65737320-
  2416 00001379 2F204D6F7265207669-
  2416 00001382 766964202873617475-
  2416 0000138B 726174696F6E290D0A 
  2417 00001394 20205363726F6C6C4C-         db '  ScrollLock OFF = normal keyboard, hotkeys disabled', 13, 10
  2417 0000139D 6F636B204F4646203D-
  2417 000013A6 206E6F726D616C206B-
  2417 000013AF 6579626F6172642C20-
  2417 000013B8 686F746B6579732064-
  2417 000013C1 697361626C65640D0A 
  2418 000013CA 0D0A                        db 13, 10
  2419 000013CC 436F6C6F72206E616D-         db 'Color names for /c: and /b:', 13, 10
  2419 000013D5 657320666F72202F63-
  2419 000013DE 3A20616E64202F623A-
  2419 000013E7 0D0A               
  2420 000013E9 2020626C61636B2C20-         db '  black, blue, green, cyan, red, magenta, brown, lightgray,', 13, 10
  2420 000013F2 626C75652C20677265-
  2420 000013FB 656E2C206379616E2C-
  2420 00001404 207265642C206D6167-
  2420 0000140D 656E74612C2062726F-
  2420 00001416 776E2C206C69676874-
  2420 0000141F 677261792C0D0A     
  2421 00001426 20206461726B677261-         db '  darkgray, lightblue, lightgreen, lightcyan, lightred,', 13, 10
  2421 0000142F 792C206C6967687462-
  2421 00001438 6C75652C206C696768-
  2421 00001441 74677265656E2C206C-
  2421 0000144A 696768746379616E2C-
  2421 00001453 206C69676874726564-
  2421 0000145C 2C0D0A             
  2422 0000145F 20206C696768746D61-         db '  lightmagenta, yellow, white', 13, 10
  2422 00001468 67656E74612C207965-
  2422 00001471 6C6C6F772C20776869-
  2422 0000147A 74650D0A           
  2423 0000147E 0D0A                        db 13, 10
  2424 00001480 546578742066696C65-         db 'Text file: R,G,B per line (0-63). Compatible with PC1PAL.TXT', 13, 10
  2424 00001489 3A20522C472C422070-
  2424 00001492 6572206C696E652028-
  2424 0000149B 302D3633292E20436F-
  2424 000014A4 6D70617469626C6520-
  2424 000014AD 776974682050433150-
  2424 000014B6 414C2E5458540D0A   
  2425 000014BE 24                          db '$'
  2426                                  
  2427 000014BF 5072657365743A2041-     msg_preset1:     db 'Preset: Arcade Vibrant', 13, 10, '$'
  2427 000014C8 726361646520566962-
  2427 000014D1 72616E740D0A24     
  2428 000014D8 5072657365743A2053-     msg_preset2:     db 'Preset: Sierra Natural', 13, 10, '$'
  2428 000014E1 6965727261204E6174-
  2428 000014EA 7572616C0D0A24     
  2429 000014F1 5072657365743A2043-     msg_preset3:     db 'Preset: C64-inspired', 13, 10, '$'
  2429 000014FA 36342D696E73706972-
  2429 00001503 65640D0A24         
  2430 00001508 5072657365743A2043-     msg_preset4:     db 'Preset: CGA Red/Green/White', 13, 10, '$'
  2430 00001511 4741205265642F4772-
  2430 0000151A 65656E2F5768697465-
  2430 00001523 0D0A24             
  2431 00001526 5072657365743A2043-     msg_preset5:     db 'Preset: CGA Red/Blue/White', 13, 10, '$'
  2431 0000152F 4741205265642F426C-
  2431 00001538 75652F57686974650D-
  2431 00001541 0A24               
  2432 00001543 5573696E6720646566-     msg_resetting:   db 'Using default CGA palette.', 13, 10, '$'
  2432 0000154C 61756C742043474120-
  2432 00001555 70616C657474652E0D-
  2432 0000155E 0A24               
  2433                                  msg_installed:
  2434 00001560 54535220696E737461-         db 'TSR installed. INT 09h + INT 10h hooked.', 13, 10
  2434 00001569 6C6C65642E20494E54-
  2434 00001572 20303968202B20494E-
  2434 0000157B 542031306820686F6F-
  2434 00001584 6B65642E0D0A       
  2435 0000158A 5363726F6C6C4C6F63-         db 'ScrollLock ON = hotkeys active (1-5/P/R/arrows).', 13, 10
  2435 00001593 6B204F4E203D20686F-
  2435 0000159C 746B65797320616374-
  2435 000015A5 6976652028312D352F-
  2435 000015AE 502F522F6172726F77-
  2435 000015B7 73292E0D0A         
  2436 000015BC 52756E20796F757220-         db 'Run your CGA game now. Use PALSWAPT /U to uninstall.', 13, 10, '$'
  2436 000015C5 4347412067616D6520-
  2436 000015CE 6E6F772E2055736520-
  2436 000015D7 50414C535741505420-
  2436 000015E0 2F5520746F20756E69-
  2436 000015E9 6E7374616C6C2E0D0A-
  2436 000015F2 24                 
  2437                                  msg_already_loaded:
  2438 000015F3 50616C537761705420-         db 'PalSwapT already installed.', 13, 10
  2438 000015FC 616C72656164792069-
  2438 00001605 6E7374616C6C65642E-
  2438 0000160E 0D0A               
  2439 00001610 5573652050414C5357-         db 'Use PALSWAPT /U to uninstall first.', 13, 10, '$'
  2439 00001619 415054202F5520746F-
  2439 00001622 20756E696E7374616C-
  2439 0000162B 6C2066697273742E0D-
  2439 00001634 0A24               
  2440                                  msg_unloaded:
  2441 00001636 50616C537761705420-         db 'PalSwapT uninstalled. INT 09h + INT 10h restored.', 13, 10, '$'
  2441 0000163F 756E696E7374616C6C-
  2441 00001648 65642E20494E542030-
  2441 00001651 3968202B20494E5420-
  2441 0000165A 31306820726573746F-
  2441 00001663 7265642E0D0A24     
  2442                                  msg_unload_error:
  2443 0000166A 4572726F723A205061-         db 'Error: PalSwapT not found in interrupt chain.', 13, 10, '$'
  2443 00001673 6C5377617054206E6F-
  2443 0000167C 7420666F756E642069-
  2443 00001685 6E20696E7465727275-
  2443 0000168E 707420636861696E2E-
  2443 00001697 0D0A24             
  2444 0000169A 436F6C6F7273202852-     msg_colors:      db 'Colors (R,G,B):', 13, 10, '$'
  2444 000016A3 2C472C42293A0D0A24 
  2445 000016AC 2020436F6C6F722024      msg_color_prefix:db '  Color $'
  2446 000016B5 3A2024                  msg_color_sep:   db ': $'
  2447 000016B8 0D0A24                  msg_crlf:        db 13, 10, '$'
  2448 000016BB 5761726E696E673A20-     msg_fallback:    db 'Warning: palette load failed, using default.', 13, 10, '$'
  2448 000016C4 70616C65747465206C-
  2448 000016CD 6F6164206661696C65-
  2448 000016D6 642C207573696E6720-
  2448 000016DF 64656661756C742E0D-
  2448 000016E8 0A24               
  2449 000016EA 5761726E696E673A20-     msg_file_error:  db 'Warning: Cannot open palette file.', 13, 10, '$'
  2449 000016F3 43616E6E6F74206F70-
  2449 000016FC 656E2070616C657474-
  2449 00001705 652066696C652E0D0A-
  2449 0000170E 24                 
  2450 0000170F 5761726E696E673A20-     msg_parse_error: db 'Warning: Cannot parse palette file.', 13, 10, '$'
  2450 00001718 43616E6E6F74207061-
  2450 00001721 7273652070616C6574-
  2450 0000172A 74652066696C652E0D-
  2450 00001733 0A24               
  2451 00001735 5761726E696E673A20-     msg_invalid:     db 'Warning: Value out of range (must be 0-63).', 13, 10, '$'
  2451 0000173E 56616C7565206F7574-
  2451 00001747 206F662072616E6765-
  2451 00001750 20286D757374206265-
  2451 00001759 20302D3633292E0D0A-
  2451 00001762 24                 
  2452 00001763 5761726E696E673A20-     msg_bad_bg:      db 'Warning: Unknown background color name. Use /? for list.', 13, 10, '$'
  2452 0000176C 556E6B6E6F776E2062-
  2452 00001775 61636B67726F756E64-
  2452 0000177E 20636F6C6F72206E61-
  2452 00001787 6D652E20557365202F-
  2452 00001790 3F20666F72206C6973-
  2452 00001799 742E0D0A24         
  2453 0000179E 5761726E696E673A20-     msg_bad_fg:      db 'Warning: Bad /c: colors. Use /c:name,name,name (see /?).', 13, 10, '$'
  2453 000017A7 426164202F633A2063-
  2453 000017B0 6F6C6F72732E205573-
  2453 000017B9 65202F633A6E616D65-
  2453 000017C2 2C6E616D652C6E616D-
  2453 000017CB 652028736565202F3F-
  2453 000017D4 292E0D0A24         
  2454 000017D9 4572726F723A20556E-     msg_bad_switch:  db 'Error: Unknown switch. Use /? for help.', 13, 10, '$'
  2454 000017E2 6B6E6F776E20737769-
  2454 000017EB 7463682E2055736520-
  2454 000017F4 2F3F20666F72206865-
  2454 000017FD 6C702E0D0A24       
  2455                                  
  2456 00001803 50414C53574150542E-     default_filename: db 'PALSWAPT.TXT', 0
  2456 0000180C 54585400           
  2457                                  
  2458                                  ; ============================================================================
  2459                                  ; Color name table (shared by /b: and /c: parsers)
  2460                                  ; ============================================================================
  2461                                  bg_color_names:
  2462 00001810 626C61636B00000000          db 'black', 0,          0,  0,  0
  2463 00001819 626C75650000002A            db 'blue', 0,           0,  0, 42
  2464 00001821 677265656E00002A00          db 'green', 0,          0, 42,  0
  2465 0000182A 6379616E00002A2A            db 'cyan', 0,           0, 42, 42
  2466 00001832 726564002A0000              db 'red', 0,           42,  0,  0
  2467 00001839 6D6167656E7461002A-         db 'magenta', 0,       42,  0, 42
  2467 00001842 002A               
  2468 00001844 62726F776E002A1500          db 'brown', 0,         42, 21,  0
  2469 0000184D 6C6967687467726179-         db 'lightgray', 0,     42, 42, 42
  2469 00001856 002A2A2A           
  2470 0000185A 6461726B6772617900-         db 'darkgray', 0,      21, 21, 21
  2470 00001863 151515             
  2471 00001866 6C69676874626C7565-         db 'lightblue', 0,     21, 21, 63
  2471 0000186F 0015153F           
  2472 00001873 6C6967687467726565-         db 'lightgreen', 0,    21, 63, 21
  2472 0000187C 6E00153F15         
  2473 00001881 6C696768746379616E-         db 'lightcyan', 0,     21, 63, 63
  2473 0000188A 00153F3F           
  2474 0000188E 6C6967687472656400-         db 'lightred', 0,      63, 21, 21
  2474 00001897 3F1515             
  2475 0000189A 6C696768746D616765-         db 'lightmagenta', 0,  63, 21, 63
  2475 000018A3 6E7461003F153F     
  2476 000018AA 79656C6C6F77003F3F-         db 'yellow', 0,        63, 63, 21
  2476 000018B3 15                 
  2477 000018B4 7768697465003F3F3F          db 'white', 0,         63, 63, 63
  2478 000018BD 00                          db 0                    ; end of table
  2479                                  
  2480                                  ; ============================================================================
  2481                                  ; Installer variables (transient)
  2482                                  ; ============================================================================
  2483 000018BE 00                      explicit_file:      db 0
  2484 000018BF 00                      parse_error:        db 0
  2485 000018C0 00                      brightness_adj_cmd: db 0        ; 0=none, 1=brighten, 2=dim
  2486 000018C1 00                      vivid_adj_cmd:      db 0        ; 0=none, 1=boost, 2=mute
  2487 000018C2 00                      pop_flag_cmd:       db 0        ; 1=apply pop from command line
  2488 000018C3 00                      switch_result:      db 0
  2489 000018C4 00                      bg_specified:       db 0
  2490 000018C5 000000                  bg_color:           db 0, 0, 0
  2491 000018C8 00                      fg_specified:       db 0
  2492 000018C9 00                      fg_count:           db 0
  2493 000018CA 00<rep 9h>              fg_colors:          times 9 db 0
  2494 000018D3 0000                    file_handle:        dw 0
  2495 000018D5 0000                    bytes_read:         dw 0
  2496                                  
  2497 000018D7 00<rep 80h>             filename_buffer:    times 128 db 0
  2498 00001957 00<rep Ch>              config_buffer:      times CONFIG_SIZE db 0
  2499 00001963 00<rep 200h>            text_buffer:        times TEXT_BUF_SIZE db 0
  2500                                  
  2501                                  ; ============================================================================
  2502                                  ; End of PalSwapT.ASM
  2503                                  ; ============================================================================
